
build/3:     file format elf64-littleriscv


Disassembly of section .text:

0000000052030000 <_start>:
    52030000:	1141                	addi	sp,sp,-16
    52030002:	e422                	sd	s0,8(sp)
    52030004:	e006                	sd	ra,0(sp)
    52030006:	0800                	addi	s0,sp,16
    52030008:	00000297          	auipc	t0,0x0
    5203000c:	22828293          	addi	t0,t0,552 # 52030230 <__BSS_END__>
    52030010:	00000317          	auipc	t1,0x0
    52030014:	22030313          	addi	t1,t1,544 # 52030230 <__BSS_END__>

0000000052030018 <clear>:
    52030018:	0002a023          	sw	zero,0(t0)
    5203001c:	0291                	addi	t0,t0,4
    5203001e:	fe62cde3          	blt	t0,t1,52030018 <clear>
    52030022:	014000ef          	jal	52030036 <main>
    52030026:	6082                	ld	ra,0(sp)
    52030028:	6422                	ld	s0,8(sp)
    5203002a:	0141                	addi	sp,sp,16
    5203002c:	8082                	ret

000000005203002e <loop>:
    5203002e:	10500073          	wfi
    52030032:	bff5                	j	5203002e <loop>
    52030034:	0001                	nop

0000000052030036 <main>:
    52030036:	1101                	addi	sp,sp,-32
    52030038:	505107b7          	lui	a5,0x50510
    5203003c:	e822                	sd	s0,16(sp)
    5203003e:	4380                	lw	s0,0(a5)
    52030040:	e426                	sd	s1,8(sp)
    52030042:	ec06                	sd	ra,24(sp)
    52030044:	2401                	sext.w	s0,s0
    52030046:	0014149b          	slliw	s1,s0,0x1
    5203004a:	9ca1                	addw	s1,s1,s0
    5203004c:	c384                	sw	s1,0(a5)
    5203004e:	00000517          	auipc	a0,0x0
    52030052:	0fa50513          	addi	a0,a0,250 # 52030148 <print_int+0x96>
    52030056:	034000ef          	jal	5203008a <bios_putstr>
    5203005a:	8522                	mv	a0,s0
    5203005c:	056000ef          	jal	520300b2 <print_int>
    52030060:	00000517          	auipc	a0,0x0
    52030064:	0f850513          	addi	a0,a0,248 # 52030158 <print_int+0xa6>
    52030068:	022000ef          	jal	5203008a <bios_putstr>
    5203006c:	8526                	mv	a0,s1
    5203006e:	044000ef          	jal	520300b2 <print_int>
    52030072:	00000517          	auipc	a0,0x0
    52030076:	0f650513          	addi	a0,a0,246 # 52030168 <print_int+0xb6>
    5203007a:	010000ef          	jal	5203008a <bios_putstr>
    5203007e:	60e2                	ld	ra,24(sp)
    52030080:	6442                	ld	s0,16(sp)
    52030082:	64a2                	ld	s1,8(sp)
    52030084:	4501                	li	a0,0
    52030086:	6105                	addi	sp,sp,32
    52030088:	8082                	ret

000000005203008a <bios_putstr>:
    5203008a:	520007b7          	lui	a5,0x52000
    5203008e:	f0078793          	addi	a5,a5,-256 # 51ffff00 <_start-0x30100>
    52030092:	639c                	ld	a5,0(a5)
    52030094:	4701                	li	a4,0
    52030096:	4681                	li	a3,0
    52030098:	4601                	li	a2,0
    5203009a:	4581                	li	a1,0
    5203009c:	8782                	jr	a5

000000005203009e <bios_putchar>:
    5203009e:	520007b7          	lui	a5,0x52000
    520300a2:	f0878793          	addi	a5,a5,-248 # 51ffff08 <_start-0x300f8>
    520300a6:	639c                	ld	a5,0(a5)
    520300a8:	4701                	li	a4,0
    520300aa:	4681                	li	a3,0
    520300ac:	4601                	li	a2,0
    520300ae:	4581                	li	a1,0
    520300b0:	8782                	jr	a5

00000000520300b2 <print_int>:
    520300b2:	c549                	beqz	a0,5203013c <print_int+0x8a>
    520300b4:	7179                	addi	sp,sp,-48
    520300b6:	e84a                	sd	s2,16(sp)
    520300b8:	f406                	sd	ra,40(sp)
    520300ba:	f022                	sd	s0,32(sp)
    520300bc:	ec26                	sd	s1,24(sp)
    520300be:	892a                	mv	s2,a0
    520300c0:	06054763          	bltz	a0,5203012e <print_int+0x7c>
    520300c4:	66666537          	lui	a0,0x66666
    520300c8:	858a                	mv	a1,sp
    520300ca:	66750513          	addi	a0,a0,1639 # 66666667 <__BSS_END__+0x14636437>
    520300ce:	4601                	li	a2,0
    520300d0:	02a90733          	mul	a4,s2,a0
    520300d4:	41f9569b          	sraiw	a3,s2,0x1f
    520300d8:	8432                	mv	s0,a2
    520300da:	0585                	addi	a1,a1,1
    520300dc:	2605                	addiw	a2,a2,1
    520300de:	9709                	srai	a4,a4,0x22
    520300e0:	9f15                	subw	a4,a4,a3
    520300e2:	0027169b          	slliw	a3,a4,0x2
    520300e6:	9eb9                	addw	a3,a3,a4
    520300e8:	0016969b          	slliw	a3,a3,0x1
    520300ec:	40d907bb          	subw	a5,s2,a3
    520300f0:	0307879b          	addiw	a5,a5,48
    520300f4:	fef58fa3          	sb	a5,-1(a1)
    520300f8:	893a                	mv	s2,a4
    520300fa:	fb79                	bnez	a4,520300d0 <print_int+0x1e>
    520300fc:	52000937          	lui	s2,0x52000
    52030100:	940a                	add	s0,s0,sp
    52030102:	fff10493          	addi	s1,sp,-1
    52030106:	f0890913          	addi	s2,s2,-248 # 51ffff08 <_start-0x300f8>
    5203010a:	00044503          	lbu	a0,0(s0)
    5203010e:	00093783          	ld	a5,0(s2)
    52030112:	4701                	li	a4,0
    52030114:	4681                	li	a3,0
    52030116:	4601                	li	a2,0
    52030118:	4581                	li	a1,0
    5203011a:	147d                	addi	s0,s0,-1
    5203011c:	9782                	jalr	a5
    5203011e:	fe9416e3          	bne	s0,s1,5203010a <print_int+0x58>
    52030122:	70a2                	ld	ra,40(sp)
    52030124:	7402                	ld	s0,32(sp)
    52030126:	64e2                	ld	s1,24(sp)
    52030128:	6942                	ld	s2,16(sp)
    5203012a:	6145                	addi	sp,sp,48
    5203012c:	8082                	ret
    5203012e:	02d00513          	li	a0,45
    52030132:	f6dff0ef          	jal	5203009e <bios_putchar>
    52030136:	4120093b          	negw	s2,s2
    5203013a:	b769                	j	520300c4 <print_int+0x12>
    5203013c:	03000513          	li	a0,48
    52030140:	bfb9                	j	5203009e <bios_putchar>
