
build/bss:     file format elf64-littleriscv


Disassembly of section .text:

0000000052060000 <_start>:
    52060000:	1141                	addi	sp,sp,-16
    52060002:	e422                	sd	s0,8(sp)
    52060004:	e006                	sd	ra,0(sp)
    52060006:	0800                	addi	s0,sp,16
    52060008:	00000297          	auipc	t0,0x0
    5206000c:	62828293          	addi	t0,t0,1576 # 52060630 <buf>
    52060010:	00000317          	auipc	t1,0x0
    52060014:	65830313          	addi	t1,t1,1624 # 52060668 <__BSS_END__>

0000000052060018 <clear>:
    52060018:	0002a023          	sw	zero,0(t0)
    5206001c:	0291                	addi	t0,t0,4
    5206001e:	fe62cde3          	blt	t0,t1,52060018 <clear>
    52060022:	014000ef          	jal	52060036 <main>
    52060026:	6082                	ld	ra,0(sp)
    52060028:	6422                	ld	s0,8(sp)
    5206002a:	0141                	addi	sp,sp,16
    5206002c:	8082                	ret

000000005206002e <loop>:
    5206002e:	10500073          	wfi
    52060032:	bff5                	j	5206002e <loop>
    52060034:	0001                	nop

0000000052060036 <main>:
    52060036:	7139                	addi	sp,sp,-64
    52060038:	00000517          	auipc	a0,0x0
    5206003c:	35050513          	addi	a0,a0,848 # 52060388 <put_hex8+0x6e>
    52060040:	fc06                	sd	ra,56(sp)
    52060042:	f822                	sd	s0,48(sp)
    52060044:	f04a                	sd	s2,32(sp)
    52060046:	1d2000ef          	jal	52060218 <bios_putstr>
    5206004a:	00000917          	auipc	s2,0x0
    5206004e:	5e690913          	addi	s2,s2,1510 # 52060630 <buf>
    52060052:	0009051b          	sext.w	a0,s2
    52060056:	1ea000ef          	jal	52060240 <put_hex32>
    5206005a:	00000517          	auipc	a0,0x0
    5206005e:	34e50513          	addi	a0,a0,846 # 520603a8 <put_hex8+0x8e>
    52060062:	1b6000ef          	jal	52060218 <bios_putstr>
    52060066:	00000517          	auipc	a0,0x0
    5206006a:	5fb50513          	addi	a0,a0,1531 # 52060661 <buf+0x31>
    5206006e:	2501                	sext.w	a0,a0
    52060070:	1d0000ef          	jal	52060240 <put_hex32>
    52060074:	00000517          	auipc	a0,0x0
    52060078:	34450513          	addi	a0,a0,836 # 520603b8 <put_hex8+0x9e>
    5206007c:	19c000ef          	jal	52060218 <bios_putstr>
    52060080:	03200513          	li	a0,50
    52060084:	21e000ef          	jal	520602a2 <put_dec>
    52060088:	00000517          	auipc	a0,0x0
    5206008c:	34050513          	addi	a0,a0,832 # 520603c8 <put_hex8+0xae>
    52060090:	188000ef          	jal	52060218 <bios_putstr>
    52060094:	87ca                	mv	a5,s2
    52060096:	4401                	li	s0,0
    52060098:	03200693          	li	a3,50
    5206009c:	a021                	j	520600a4 <main+0x6e>
    5206009e:	2405                	addiw	s0,s0,1
    520600a0:	14d40b63          	beq	s0,a3,520601f6 <main+0x1c0>
    520600a4:	0007c703          	lbu	a4,0(a5)
    520600a8:	0785                	addi	a5,a5,1
    520600aa:	db75                	beqz	a4,5206009e <main+0x68>
    520600ac:	00000517          	auipc	a0,0x0
    520600b0:	32450513          	addi	a0,a0,804 # 520603d0 <put_hex8+0xb6>
    520600b4:	ec4e                	sd	s3,24(sp)
    520600b6:	162000ef          	jal	52060218 <bios_putstr>
    520600ba:	8522                	mv	a0,s0
    520600bc:	1e6000ef          	jal	520602a2 <put_dec>
    520600c0:	00000517          	auipc	a0,0x0
    520600c4:	33850513          	addi	a0,a0,824 # 520603f8 <put_hex8+0xde>
    520600c8:	150000ef          	jal	52060218 <bios_putstr>
    520600cc:	008907b3          	add	a5,s2,s0
    520600d0:	0007c503          	lbu	a0,0(a5)
    520600d4:	89a2                	mv	s3,s0
    520600d6:	244000ef          	jal	5206031a <put_hex8>
    520600da:	00000517          	auipc	a0,0x0
    520600de:	2ee50513          	addi	a0,a0,750 # 520603c8 <put_hex8+0xae>
    520600e2:	136000ef          	jal	52060218 <bios_putstr>
    520600e6:	47c1                	li	a5,16
    520600e8:	0cf44563          	blt	s0,a5,520601b2 <main+0x17c>
    520600ec:	02100793          	li	a5,33
    520600f0:	39c1                	addiw	s3,s3,-16
    520600f2:	0c87c263          	blt	a5,s0,520601b6 <main+0x180>
    520600f6:	00000517          	auipc	a0,0x0
    520600fa:	31250513          	addi	a0,a0,786 # 52060408 <put_hex8+0xee>
    520600fe:	11a000ef          	jal	52060218 <bios_putstr>
    52060102:	854e                	mv	a0,s3
    52060104:	19e000ef          	jal	520602a2 <put_dec>
    52060108:	00000517          	auipc	a0,0x0
    5206010c:	32850513          	addi	a0,a0,808 # 52060430 <put_hex8+0x116>
    52060110:	4134043b          	subw	s0,s0,s3
    52060114:	2445                	addiw	s0,s0,17
    52060116:	102000ef          	jal	52060218 <bios_putstr>
    5206011a:	8522                	mv	a0,s0
    5206011c:	186000ef          	jal	520602a2 <put_dec>
    52060120:	00000517          	auipc	a0,0x0
    52060124:	32050513          	addi	a0,a0,800 # 52060440 <put_hex8+0x126>
    52060128:	0f0000ef          	jal	52060218 <bios_putstr>
    5206012c:	c025                	beqz	s0,5206018c <main+0x156>
    5206012e:	f426                	sd	s1,40(sp)
    52060130:	e852                	sd	s4,16(sp)
    52060132:	e456                	sd	s5,8(sp)
    52060134:	52000a37          	lui	s4,0x52000
    52060138:	f08a0a13          	addi	s4,s4,-248 # 51ffff08 <_start-0x600f8>
    5206013c:	4481                	li	s1,0
    5206013e:	4abd                	li	s5,15
    52060140:	a021                	j	52060148 <main+0x112>
    52060142:	0485                	addi	s1,s1,1
    52060144:	02848f63          	beq	s1,s0,52060182 <main+0x14c>
    52060148:	009987b3          	add	a5,s3,s1
    5206014c:	97ca                	add	a5,a5,s2
    5206014e:	0007c503          	lbu	a0,0(a5)
    52060152:	1c8000ef          	jal	5206031a <put_hex8>
    52060156:	000a3783          	ld	a5,0(s4)
    5206015a:	4701                	li	a4,0
    5206015c:	4681                	li	a3,0
    5206015e:	4601                	li	a2,0
    52060160:	4581                	li	a1,0
    52060162:	02000513          	li	a0,32
    52060166:	9782                	jalr	a5
    52060168:	00f4f793          	andi	a5,s1,15
    5206016c:	fd579be3          	bne	a5,s5,52060142 <main+0x10c>
    52060170:	00000517          	auipc	a0,0x0
    52060174:	25850513          	addi	a0,a0,600 # 520603c8 <put_hex8+0xae>
    52060178:	0485                	addi	s1,s1,1
    5206017a:	09e000ef          	jal	52060218 <bios_putstr>
    5206017e:	fc8495e3          	bne	s1,s0,52060148 <main+0x112>
    52060182:	88bd                	andi	s1,s1,15
    52060184:	e0c1                	bnez	s1,52060204 <main+0x1ce>
    52060186:	74a2                	ld	s1,40(sp)
    52060188:	6a42                	ld	s4,16(sp)
    5206018a:	6aa2                	ld	s5,8(sp)
    5206018c:	00000517          	auipc	a0,0x0
    52060190:	2bc50513          	addi	a0,a0,700 # 52060448 <put_hex8+0x12e>
    52060194:	084000ef          	jal	52060218 <bios_putstr>
    52060198:	00000517          	auipc	a0,0x0
    5206019c:	2d050513          	addi	a0,a0,720 # 52060468 <put_hex8+0x14e>
    520601a0:	078000ef          	jal	52060218 <bios_putstr>
    520601a4:	69e2                	ld	s3,24(sp)
    520601a6:	70e2                	ld	ra,56(sp)
    520601a8:	7442                	ld	s0,48(sp)
    520601aa:	7902                	ld	s2,32(sp)
    520601ac:	4501                	li	a0,0
    520601ae:	6121                	addi	sp,sp,64
    520601b0:	8082                	ret
    520601b2:	89be                	mv	s3,a5
    520601b4:	bf25                	j	520600ec <main+0xb6>
    520601b6:	00000517          	auipc	a0,0x0
    520601ba:	25250513          	addi	a0,a0,594 # 52060408 <put_hex8+0xee>
    520601be:	f426                	sd	s1,40(sp)
    520601c0:	e852                	sd	s4,16(sp)
    520601c2:	e456                	sd	s5,8(sp)
    520601c4:	054000ef          	jal	52060218 <bios_putstr>
    520601c8:	854e                	mv	a0,s3
    520601ca:	0d8000ef          	jal	520602a2 <put_dec>
    520601ce:	00000517          	auipc	a0,0x0
    520601d2:	26250513          	addi	a0,a0,610 # 52060430 <put_hex8+0x116>
    520601d6:	03200413          	li	s0,50
    520601da:	03e000ef          	jal	52060218 <bios_putstr>
    520601de:	4134043b          	subw	s0,s0,s3
    520601e2:	8522                	mv	a0,s0
    520601e4:	0be000ef          	jal	520602a2 <put_dec>
    520601e8:	00000517          	auipc	a0,0x0
    520601ec:	25850513          	addi	a0,a0,600 # 52060440 <put_hex8+0x126>
    520601f0:	028000ef          	jal	52060218 <bios_putstr>
    520601f4:	b781                	j	52060134 <main+0xfe>
    520601f6:	00000517          	auipc	a0,0x0
    520601fa:	2b250513          	addi	a0,a0,690 # 520604a8 <put_hex8+0x18e>
    520601fe:	01a000ef          	jal	52060218 <bios_putstr>
    52060202:	b755                	j	520601a6 <main+0x170>
    52060204:	00000517          	auipc	a0,0x0
    52060208:	1c450513          	addi	a0,a0,452 # 520603c8 <put_hex8+0xae>
    5206020c:	00c000ef          	jal	52060218 <bios_putstr>
    52060210:	74a2                	ld	s1,40(sp)
    52060212:	6a42                	ld	s4,16(sp)
    52060214:	6aa2                	ld	s5,8(sp)
    52060216:	bf9d                	j	5206018c <main+0x156>

0000000052060218 <bios_putstr>:
    52060218:	520007b7          	lui	a5,0x52000
    5206021c:	f0078793          	addi	a5,a5,-256 # 51ffff00 <_start-0x60100>
    52060220:	639c                	ld	a5,0(a5)
    52060222:	4701                	li	a4,0
    52060224:	4681                	li	a3,0
    52060226:	4601                	li	a2,0
    52060228:	4581                	li	a1,0
    5206022a:	8782                	jr	a5

000000005206022c <bios_putchar>:
    5206022c:	520007b7          	lui	a5,0x52000
    52060230:	f0878793          	addi	a5,a5,-248 # 51ffff08 <_start-0x600f8>
    52060234:	639c                	ld	a5,0(a5)
    52060236:	4701                	li	a4,0
    52060238:	4681                	li	a3,0
    5206023a:	4601                	li	a2,0
    5206023c:	4581                	li	a1,0
    5206023e:	8782                	jr	a5

0000000052060240 <put_hex32>:
    52060240:	7179                	addi	sp,sp,-48
    52060242:	ec26                	sd	s1,24(sp)
    52060244:	520004b7          	lui	s1,0x52000
    52060248:	f022                	sd	s0,32(sp)
    5206024a:	e84a                	sd	s2,16(sp)
    5206024c:	e44e                	sd	s3,8(sp)
    5206024e:	e052                	sd	s4,0(sp)
    52060250:	f406                	sd	ra,40(sp)
    52060252:	8a2a                	mv	s4,a0
    52060254:	f0848493          	addi	s1,s1,-248 # 51ffff08 <_start-0x600f8>
    52060258:	4471                	li	s0,28
    5206025a:	00000997          	auipc	s3,0x0
    5206025e:	11698993          	addi	s3,s3,278 # 52060370 <put_hex8+0x56>
    52060262:	5971                	li	s2,-4
    52060264:	609c                	ld	a5,0(s1)
    52060266:	4701                	li	a4,0
    52060268:	4681                	li	a3,0
    5206026a:	4601                	li	a2,0
    5206026c:	4581                	li	a1,0
    5206026e:	03000513          	li	a0,48
    52060272:	9782                	jalr	a5
    52060274:	008a57bb          	srlw	a5,s4,s0
    52060278:	8bbd                	andi	a5,a5,15
    5206027a:	97ce                	add	a5,a5,s3
    5206027c:	0007c503          	lbu	a0,0(a5)
    52060280:	609c                	ld	a5,0(s1)
    52060282:	4701                	li	a4,0
    52060284:	4681                	li	a3,0
    52060286:	4601                	li	a2,0
    52060288:	4581                	li	a1,0
    5206028a:	3471                	addiw	s0,s0,-4
    5206028c:	9782                	jalr	a5
    5206028e:	fd241be3          	bne	s0,s2,52060264 <put_hex32+0x24>
    52060292:	70a2                	ld	ra,40(sp)
    52060294:	7402                	ld	s0,32(sp)
    52060296:	64e2                	ld	s1,24(sp)
    52060298:	6942                	ld	s2,16(sp)
    5206029a:	69a2                	ld	s3,8(sp)
    5206029c:	6a02                	ld	s4,0(sp)
    5206029e:	6145                	addi	sp,sp,48
    520602a0:	8082                	ret

00000000520602a2 <put_dec>:
    520602a2:	c92d                	beqz	a0,52060314 <put_dec+0x72>
    520602a4:	7179                	addi	sp,sp,-48
    520602a6:	f022                	sd	s0,32(sp)
    520602a8:	66666437          	lui	s0,0x66666
    520602ac:	66740413          	addi	s0,s0,1639 # 66666667 <__BSS_END__+0x14605fff>
    520602b0:	02850433          	mul	s0,a0,s0
    520602b4:	41f5579b          	sraiw	a5,a0,0x1f
    520602b8:	f406                	sd	ra,40(sp)
    520602ba:	ec26                	sd	s1,24(sp)
    520602bc:	e84a                	sd	s2,16(sp)
    520602be:	9409                	srai	s0,s0,0x22
    520602c0:	9c1d                	subw	s0,s0,a5
    520602c2:	0024179b          	slliw	a5,s0,0x2
    520602c6:	9fa1                	addw	a5,a5,s0
    520602c8:	0017979b          	slliw	a5,a5,0x1
    520602cc:	9d1d                	subw	a0,a0,a5
    520602ce:	0305051b          	addiw	a0,a0,48
    520602d2:	00a10023          	sb	a0,0(sp)
    520602d6:	c411                	beqz	s0,520602e2 <put_dec+0x40>
    520602d8:	0304041b          	addiw	s0,s0,48
    520602dc:	008100a3          	sb	s0,1(sp)
    520602e0:	4405                	li	s0,1
    520602e2:	52000937          	lui	s2,0x52000
    520602e6:	940a                	add	s0,s0,sp
    520602e8:	fff10493          	addi	s1,sp,-1
    520602ec:	f0890913          	addi	s2,s2,-248 # 51ffff08 <_start-0x600f8>
    520602f0:	00044503          	lbu	a0,0(s0)
    520602f4:	00093783          	ld	a5,0(s2)
    520602f8:	4701                	li	a4,0
    520602fa:	4681                	li	a3,0
    520602fc:	4601                	li	a2,0
    520602fe:	4581                	li	a1,0
    52060300:	147d                	addi	s0,s0,-1
    52060302:	9782                	jalr	a5
    52060304:	fe9416e3          	bne	s0,s1,520602f0 <put_dec+0x4e>
    52060308:	70a2                	ld	ra,40(sp)
    5206030a:	7402                	ld	s0,32(sp)
    5206030c:	64e2                	ld	s1,24(sp)
    5206030e:	6942                	ld	s2,16(sp)
    52060310:	6145                	addi	sp,sp,48
    52060312:	8082                	ret
    52060314:	03000513          	li	a0,48
    52060318:	bf11                	j	5206022c <bios_putchar>

000000005206031a <put_hex8>:
    5206031a:	1101                	addi	sp,sp,-32
    5206031c:	e04a                	sd	s2,0(sp)
    5206031e:	0045579b          	srliw	a5,a0,0x4
    52060322:	00000917          	auipc	s2,0x0
    52060326:	04e90913          	addi	s2,s2,78 # 52060370 <put_hex8+0x56>
    5206032a:	e822                	sd	s0,16(sp)
    5206032c:	e426                	sd	s1,8(sp)
    5206032e:	ec06                	sd	ra,24(sp)
    52060330:	520004b7          	lui	s1,0x52000
    52060334:	97ca                	add	a5,a5,s2
    52060336:	842a                	mv	s0,a0
    52060338:	0007c503          	lbu	a0,0(a5)
    5206033c:	f084b783          	ld	a5,-248(s1) # 51ffff08 <_start-0x600f8>
    52060340:	4701                	li	a4,0
    52060342:	4681                	li	a3,0
    52060344:	4601                	li	a2,0
    52060346:	4581                	li	a1,0
    52060348:	883d                	andi	s0,s0,15
    5206034a:	9782                	jalr	a5
    5206034c:	944a                	add	s0,s0,s2
    5206034e:	00044503          	lbu	a0,0(s0)
    52060352:	6442                	ld	s0,16(sp)
    52060354:	f084b783          	ld	a5,-248(s1)
    52060358:	60e2                	ld	ra,24(sp)
    5206035a:	64a2                	ld	s1,8(sp)
    5206035c:	6902                	ld	s2,0(sp)
    5206035e:	4701                	li	a4,0
    52060360:	4681                	li	a3,0
    52060362:	4601                	li	a2,0
    52060364:	4581                	li	a1,0
    52060366:	6105                	addi	sp,sp,32
    52060368:	8782                	jr	a5
