
build/data:     file format elf64-littleriscv


Disassembly of section .text:

0000000052070000 <_start>:
    52070000:	1141                	addi	sp,sp,-16
    52070002:	e422                	sd	s0,8(sp)
    52070004:	e006                	sd	ra,0(sp)
    52070006:	0800                	addi	s0,sp,16
    52070008:	00001297          	auipc	t0,0x1
    5207000c:	2a028293          	addi	t0,t0,672 # 520712a8 <__BSS_END__>
    52070010:	00001317          	auipc	t1,0x1
    52070014:	29830313          	addi	t1,t1,664 # 520712a8 <__BSS_END__>

0000000052070018 <clear>:
    52070018:	0002a023          	sw	zero,0(t0)
    5207001c:	0291                	addi	t0,t0,4
    5207001e:	fe62cde3          	blt	t0,t1,52070018 <clear>
    52070022:	014000ef          	jal	52070036 <main>
    52070026:	6082                	ld	ra,0(sp)
    52070028:	6422                	ld	s0,8(sp)
    5207002a:	0141                	addi	sp,sp,16
    5207002c:	8082                	ret

000000005207002e <loop>:
    5207002e:	10500073          	wfi
    52070032:	bff5                	j	5207002e <loop>
    52070034:	0001                	nop

0000000052070036 <main>:
    52070036:	1141                	addi	sp,sp,-16
    52070038:	00000517          	auipc	a0,0x0
    5207003c:	13850513          	addi	a0,a0,312 # 52070170 <bios_putint+0xb6>
    52070040:	e406                	sd	ra,8(sp)
    52070042:	064000ef          	jal	520700a6 <bios_putstr>
    52070046:	00000517          	auipc	a0,0x0
    5207004a:	15250513          	addi	a0,a0,338 # 52070198 <bios_putint+0xde>
    5207004e:	058000ef          	jal	520700a6 <bios_putstr>
    52070052:	40000513          	li	a0,1024
    52070056:	064000ef          	jal	520700ba <bios_putint>
    5207005a:	00000517          	auipc	a0,0x0
    5207005e:	14e50513          	addi	a0,a0,334 # 520701a8 <bios_putint+0xee>
    52070062:	044000ef          	jal	520700a6 <bios_putstr>
    52070066:	00000717          	auipc	a4,0x0
    5207006a:	24270713          	addi	a4,a4,578 # 520702a8 <data>
    5207006e:	4781                	li	a5,0
    52070070:	40000613          	li	a2,1024
    52070074:	a021                	j	5207007c <main+0x46>
    52070076:	2785                	addiw	a5,a5,1
    52070078:	00c78d63          	beq	a5,a2,52070092 <main+0x5c>
    5207007c:	4314                	lw	a3,0(a4)
    5207007e:	0711                	addi	a4,a4,4
    52070080:	fef68be3          	beq	a3,a5,52070076 <main+0x40>
    52070084:	00000517          	auipc	a0,0x0
    52070088:	12c50513          	addi	a0,a0,300 # 520701b0 <bios_putint+0xf6>
    5207008c:	01a000ef          	jal	520700a6 <bios_putstr>
    52070090:	a001                	j	52070090 <main+0x5a>
    52070092:	00000517          	auipc	a0,0x0
    52070096:	14650513          	addi	a0,a0,326 # 520701d8 <bios_putint+0x11e>
    5207009a:	00c000ef          	jal	520700a6 <bios_putstr>
    5207009e:	60a2                	ld	ra,8(sp)
    520700a0:	4501                	li	a0,0
    520700a2:	0141                	addi	sp,sp,16
    520700a4:	8082                	ret

00000000520700a6 <bios_putstr>:
    520700a6:	520007b7          	lui	a5,0x52000
    520700aa:	f0078793          	addi	a5,a5,-256 # 51ffff00 <_start-0x70100>
    520700ae:	639c                	ld	a5,0(a5)
    520700b0:	4701                	li	a4,0
    520700b2:	4681                	li	a3,0
    520700b4:	4601                	li	a2,0
    520700b6:	4581                	li	a1,0
    520700b8:	8782                	jr	a5

00000000520700ba <bios_putint>:
    520700ba:	cd41                	beqz	a0,52070152 <bios_putint+0x98>
    520700bc:	7179                	addi	sp,sp,-48
    520700be:	e84a                	sd	s2,16(sp)
    520700c0:	f406                	sd	ra,40(sp)
    520700c2:	f022                	sd	s0,32(sp)
    520700c4:	ec26                	sd	s1,24(sp)
    520700c6:	892a                	mv	s2,a0
    520700c8:	06054763          	bltz	a0,52070136 <bios_putint+0x7c>
    520700cc:	66666537          	lui	a0,0x66666
    520700d0:	858a                	mv	a1,sp
    520700d2:	66750513          	addi	a0,a0,1639 # 66666667 <__BSS_END__+0x145f53bf>
    520700d6:	4601                	li	a2,0
    520700d8:	02a90733          	mul	a4,s2,a0
    520700dc:	41f9569b          	sraiw	a3,s2,0x1f
    520700e0:	8432                	mv	s0,a2
    520700e2:	0585                	addi	a1,a1,1
    520700e4:	2605                	addiw	a2,a2,1
    520700e6:	9709                	srai	a4,a4,0x22
    520700e8:	9f15                	subw	a4,a4,a3
    520700ea:	0027169b          	slliw	a3,a4,0x2
    520700ee:	9eb9                	addw	a3,a3,a4
    520700f0:	0016969b          	slliw	a3,a3,0x1
    520700f4:	40d907bb          	subw	a5,s2,a3
    520700f8:	0307879b          	addiw	a5,a5,48
    520700fc:	fef58fa3          	sb	a5,-1(a1)
    52070100:	893a                	mv	s2,a4
    52070102:	fb79                	bnez	a4,520700d8 <bios_putint+0x1e>
    52070104:	52000937          	lui	s2,0x52000
    52070108:	940a                	add	s0,s0,sp
    5207010a:	fff10493          	addi	s1,sp,-1
    5207010e:	f0890913          	addi	s2,s2,-248 # 51ffff08 <_start-0x700f8>
    52070112:	00044503          	lbu	a0,0(s0)
    52070116:	00093783          	ld	a5,0(s2)
    5207011a:	4701                	li	a4,0
    5207011c:	4681                	li	a3,0
    5207011e:	4601                	li	a2,0
    52070120:	4581                	li	a1,0
    52070122:	147d                	addi	s0,s0,-1
    52070124:	9782                	jalr	a5
    52070126:	fe9416e3          	bne	s0,s1,52070112 <bios_putint+0x58>
    5207012a:	70a2                	ld	ra,40(sp)
    5207012c:	7402                	ld	s0,32(sp)
    5207012e:	64e2                	ld	s1,24(sp)
    52070130:	6942                	ld	s2,16(sp)
    52070132:	6145                	addi	sp,sp,48
    52070134:	8082                	ret
    52070136:	52000737          	lui	a4,0x52000
    5207013a:	f0873803          	ld	a6,-248(a4) # 51ffff08 <_start-0x700f8>
    5207013e:	4681                	li	a3,0
    52070140:	4701                	li	a4,0
    52070142:	4601                	li	a2,0
    52070144:	4581                	li	a1,0
    52070146:	02d00513          	li	a0,45
    5207014a:	9802                	jalr	a6
    5207014c:	4120093b          	negw	s2,s2
    52070150:	bfb5                	j	520700cc <bios_putint+0x12>
    52070152:	520007b7          	lui	a5,0x52000
    52070156:	f0878793          	addi	a5,a5,-248 # 51ffff08 <_start-0x700f8>
    5207015a:	639c                	ld	a5,0(a5)
    5207015c:	4701                	li	a4,0
    5207015e:	4681                	li	a3,0
    52070160:	4601                	li	a2,0
    52070162:	4581                	li	a1,0
    52070164:	03000513          	li	a0,48
    52070168:	8782                	jr	a5
