
build/loop:     file format elf64-littleriscv


Disassembly of section .text:

0000000052090000 <_start>:
    52090000:	1141                	addi	sp,sp,-16
    52090002:	e422                	sd	s0,8(sp)
    52090004:	e006                	sd	ra,0(sp)
    52090006:	0800                	addi	s0,sp,16
    52090008:	00000297          	auipc	t0,0x0
    5209000c:	18028293          	addi	t0,t0,384 # 52090188 <__BSS_END__>
    52090010:	00000317          	auipc	t1,0x0
    52090014:	17830313          	addi	t1,t1,376 # 52090188 <__BSS_END__>

0000000052090018 <clear>:
    52090018:	0002a023          	sw	zero,0(t0)
    5209001c:	0291                	addi	t0,t0,4
    5209001e:	fe62cde3          	blt	t0,t1,52090018 <clear>
    52090022:	014000ef          	jal	52090036 <main>
    52090026:	6082                	ld	ra,0(sp)
    52090028:	6422                	ld	s0,8(sp)
    5209002a:	0141                	addi	sp,sp,16
    5209002c:	8082                	ret

000000005209002e <loop>:
    5209002e:	10500073          	wfi
    52090032:	bff5                	j	5209002e <loop>
    52090034:	0001                	nop

0000000052090036 <main>:
    52090036:	7139                	addi	sp,sp,-64
    52090038:	f04a                	sd	s2,32(sp)
    5209003a:	52000937          	lui	s2,0x52000
    5209003e:	f0093783          	ld	a5,-256(s2) # 51ffff00 <_start-0x90100>
    52090042:	f822                	sd	s0,48(sp)
    52090044:	f426                	sd	s1,40(sp)
    52090046:	ec4e                	sd	s3,24(sp)
    52090048:	e852                	sd	s4,16(sp)
    5209004a:	fc06                	sd	ra,56(sp)
    5209004c:	4701                	li	a4,0
    5209004e:	4681                	li	a3,0
    52090050:	4601                	li	a2,0
    52090052:	4581                	li	a1,0
    52090054:	00000517          	auipc	a0,0x0
    52090058:	09450513          	addi	a0,a0,148 # 520900e8 <main+0xb2>
    5209005c:	0007a437          	lui	s0,0x7a
    52090060:	520009b7          	lui	s3,0x52000
    52090064:	f0090913          	addi	s2,s2,-256
    52090068:	9782                	jalr	a5
    5209006a:	f0898993          	addi	s3,s3,-248 # 51ffff08 <_start-0x900f8>
    5209006e:	11f40413          	addi	s0,s0,287 # 7a11f <_start-0x52015ee1>
    52090072:	03000493          	li	s1,48
    52090076:	03600a13          	li	s4,54
    5209007a:	00093783          	ld	a5,0(s2)
    5209007e:	4701                	li	a4,0
    52090080:	4681                	li	a3,0
    52090082:	4601                	li	a2,0
    52090084:	4581                	li	a1,0
    52090086:	00000517          	auipc	a0,0x0
    5209008a:	09250513          	addi	a0,a0,146 # 52090118 <main+0xe2>
    5209008e:	9782                	jalr	a5
    52090090:	0009b783          	ld	a5,0(s3)
    52090094:	4701                	li	a4,0
    52090096:	4681                	li	a3,0
    52090098:	4601                	li	a2,0
    5209009a:	4581                	li	a1,0
    5209009c:	8526                	mv	a0,s1
    5209009e:	9782                	jalr	a5
    520900a0:	00093783          	ld	a5,0(s2)
    520900a4:	4701                	li	a4,0
    520900a6:	4681                	li	a3,0
    520900a8:	4601                	li	a2,0
    520900aa:	4581                	li	a1,0
    520900ac:	00000517          	auipc	a0,0x0
    520900b0:	06450513          	addi	a0,a0,100 # 52090110 <main+0xda>
    520900b4:	9782                	jalr	a5
    520900b6:	c602                	sw	zero,12(sp)
    520900b8:	47b2                	lw	a5,12(sp)
    520900ba:	00f44863          	blt	s0,a5,520900ca <main+0x94>
    520900be:	47b2                	lw	a5,12(sp)
    520900c0:	2785                	addiw	a5,a5,1
    520900c2:	c63e                	sw	a5,12(sp)
    520900c4:	47b2                	lw	a5,12(sp)
    520900c6:	fef45ce3          	bge	s0,a5,520900be <main+0x88>
    520900ca:	0485                	addi	s1,s1,1
    520900cc:	fb4497e3          	bne	s1,s4,5209007a <main+0x44>
    520900d0:	70e2                	ld	ra,56(sp)
    520900d2:	7442                	ld	s0,48(sp)
    520900d4:	74a2                	ld	s1,40(sp)
    520900d6:	7902                	ld	s2,32(sp)
    520900d8:	69e2                	ld	s3,24(sp)
    520900da:	6a42                	ld	s4,16(sp)
    520900dc:	4501                	li	a0,0
    520900de:	6121                	addi	sp,sp,64
    520900e0:	8082                	ret
