
build/loop:     file format elf64-littleriscv


Disassembly of section .text:

0000000052080000 <_start>:
    52080000:	1141                	addi	sp,sp,-16
    52080002:	e422                	sd	s0,8(sp)
    52080004:	e006                	sd	ra,0(sp)
    52080006:	0800                	addi	s0,sp,16
    52080008:	00000297          	auipc	t0,0x0
    5208000c:	18028293          	addi	t0,t0,384 # 52080188 <__BSS_END__>
    52080010:	00000317          	auipc	t1,0x0
    52080014:	17830313          	addi	t1,t1,376 # 52080188 <__BSS_END__>

0000000052080018 <clear>:
    52080018:	0002a023          	sw	zero,0(t0)
    5208001c:	0291                	addi	t0,t0,4
    5208001e:	fe62cde3          	blt	t0,t1,52080018 <clear>
    52080022:	014000ef          	jal	52080036 <main>
    52080026:	6082                	ld	ra,0(sp)
    52080028:	6422                	ld	s0,8(sp)
    5208002a:	0141                	addi	sp,sp,16
    5208002c:	8082                	ret

000000005208002e <loop>:
    5208002e:	10500073          	wfi
    52080032:	bff5                	j	5208002e <loop>
    52080034:	0001                	nop

0000000052080036 <main>:
    52080036:	7139                	addi	sp,sp,-64
    52080038:	f04a                	sd	s2,32(sp)
    5208003a:	52000937          	lui	s2,0x52000
    5208003e:	f0093783          	ld	a5,-256(s2) # 51ffff00 <_start-0x80100>
    52080042:	f822                	sd	s0,48(sp)
    52080044:	f426                	sd	s1,40(sp)
    52080046:	ec4e                	sd	s3,24(sp)
    52080048:	e852                	sd	s4,16(sp)
    5208004a:	fc06                	sd	ra,56(sp)
    5208004c:	4701                	li	a4,0
    5208004e:	4681                	li	a3,0
    52080050:	4601                	li	a2,0
    52080052:	4581                	li	a1,0
    52080054:	00000517          	auipc	a0,0x0
    52080058:	09450513          	addi	a0,a0,148 # 520800e8 <main+0xb2>
    5208005c:	0007a437          	lui	s0,0x7a
    52080060:	520009b7          	lui	s3,0x52000
    52080064:	f0090913          	addi	s2,s2,-256
    52080068:	9782                	jalr	a5
    5208006a:	f0898993          	addi	s3,s3,-248 # 51ffff08 <_start-0x800f8>
    5208006e:	11f40413          	addi	s0,s0,287 # 7a11f <_start-0x52005ee1>
    52080072:	03000493          	li	s1,48
    52080076:	03600a13          	li	s4,54
    5208007a:	00093783          	ld	a5,0(s2)
    5208007e:	4701                	li	a4,0
    52080080:	4681                	li	a3,0
    52080082:	4601                	li	a2,0
    52080084:	4581                	li	a1,0
    52080086:	00000517          	auipc	a0,0x0
    5208008a:	09250513          	addi	a0,a0,146 # 52080118 <main+0xe2>
    5208008e:	9782                	jalr	a5
    52080090:	0009b783          	ld	a5,0(s3)
    52080094:	4701                	li	a4,0
    52080096:	4681                	li	a3,0
    52080098:	4601                	li	a2,0
    5208009a:	4581                	li	a1,0
    5208009c:	8526                	mv	a0,s1
    5208009e:	9782                	jalr	a5
    520800a0:	00093783          	ld	a5,0(s2)
    520800a4:	4701                	li	a4,0
    520800a6:	4681                	li	a3,0
    520800a8:	4601                	li	a2,0
    520800aa:	4581                	li	a1,0
    520800ac:	00000517          	auipc	a0,0x0
    520800b0:	06450513          	addi	a0,a0,100 # 52080110 <main+0xda>
    520800b4:	9782                	jalr	a5
    520800b6:	c602                	sw	zero,12(sp)
    520800b8:	47b2                	lw	a5,12(sp)
    520800ba:	00f44863          	blt	s0,a5,520800ca <main+0x94>
    520800be:	47b2                	lw	a5,12(sp)
    520800c0:	2785                	addiw	a5,a5,1
    520800c2:	c63e                	sw	a5,12(sp)
    520800c4:	47b2                	lw	a5,12(sp)
    520800c6:	fef45ce3          	bge	s0,a5,520800be <main+0x88>
    520800ca:	0485                	addi	s1,s1,1
    520800cc:	fb4497e3          	bne	s1,s4,5208007a <main+0x44>
    520800d0:	70e2                	ld	ra,56(sp)
    520800d2:	7442                	ld	s0,48(sp)
    520800d4:	74a2                	ld	s1,40(sp)
    520800d6:	7902                	ld	s2,32(sp)
    520800d8:	69e2                	ld	s3,24(sp)
    520800da:	6a42                	ld	s4,16(sp)
    520800dc:	4501                	li	a0,0
    520800de:	6121                	addi	sp,sp,64
    520800e0:	8082                	ret
