
build/main:     file format elf64-littleriscv


Disassembly of section .text:

0000000050201000 <_start>:
    50201000:	10401073          	csrw	sie,zero
    50201004:	14401073          	csrw	sip,zero
    50201008:	00001297          	auipc	t0,0x1
    5020100c:	43828293          	addi	t0,t0,1080 # 50202440 <tasks>
    50201010:	00002317          	auipc	t1,0x2
    50201014:	ae830313          	addi	t1,t1,-1304 # 50202af8 <__BSS_END__>

0000000050201018 <clear>:
    50201018:	0002a023          	sw	zero,0(t0)
    5020101c:	0291                	addi	t0,t0,4
    5020101e:	fe62cde3          	blt	t0,t1,50201018 <clear>

0000000050201022 <setup_C>:
    50201022:	50500137          	lui	sp,0x50500
    50201026:	00c0006f          	j	50201032 <main>

000000005020102a <loop>:
    5020102a:	10500073          	wfi
    5020102e:	bff5                	j	5020102a <loop>
    50201030:	0001                	nop

0000000050201032 <main>:
    50201032:	711d                	addi	sp,sp,-96
    50201034:	e8a2                	sd	s0,80(sp)
    50201036:	00002417          	auipc	s0,0x2
    5020103a:	a8a40413          	addi	s0,s0,-1398 # 50202ac0 <buf>
    5020103e:	ec86                	sd	ra,88(sp)
    50201040:	e4a6                	sd	s1,72(sp)
    50201042:	e0ca                	sd	s2,64(sp)
    50201044:	fc4e                	sd	s3,56(sp)
    50201046:	f852                	sd	s4,48(sp)
    50201048:	87a2                	mv	a5,s0
    5020104a:	00002697          	auipc	a3,0x2
    5020104e:	aa868693          	addi	a3,a3,-1368 # 50202af2 <buf+0x32>
    50201052:	a021                	j	5020105a <main+0x28>
    50201054:	0785                	addi	a5,a5,1
    50201056:	12d78a63          	beq	a5,a3,5020118a <main+0x158>
    5020105a:	0007c703          	lbu	a4,0(a5)
    5020105e:	db7d                	beqz	a4,50201054 <main+0x22>
    50201060:	4a01                	li	s4,0
    50201062:	52000937          	lui	s2,0x52000
    50201066:	00001817          	auipc	a6,0x1
    5020106a:	a5680813          	addi	a6,a6,-1450 # 50201abc <port_write>
    5020106e:	520006b7          	lui	a3,0x52000
    50201072:	f1093023          	sd	a6,-256(s2) # 51ffff00 <__BSS_END__+0x1dfd408>
    50201076:	00001517          	auipc	a0,0x1
    5020107a:	a3250513          	addi	a0,a0,-1486 # 50201aa8 <port_write_ch>
    5020107e:	00001597          	auipc	a1,0x1
    50201082:	a5258593          	addi	a1,a1,-1454 # 50201ad0 <port_read_ch>
    50201086:	00001617          	auipc	a2,0x1
    5020108a:	a6c60613          	addi	a2,a2,-1428 # 50201af2 <sd_read>
    5020108e:	f0a6b423          	sd	a0,-248(a3) # 51ffff08 <__BSS_END__+0x1dfd410>
    50201092:	f0b6b823          	sd	a1,-240(a3)
    50201096:	f0c6bc23          	sd	a2,-232(a3)
    5020109a:	108000ef          	jal	502011a2 <init_task_info>
    5020109e:	00001517          	auipc	a0,0x1
    502010a2:	efa50513          	addi	a0,a0,-262 # 50201f98 <strcat+0x21a>
    502010a6:	f0090913          	addi	s2,s2,-256
    502010aa:	0e4000ef          	jal	5020118e <bios_putstr>
    502010ae:	00001497          	auipc	s1,0x1
    502010b2:	39248493          	addi	s1,s1,914 # 50202440 <tasks>
    502010b6:	00001997          	auipc	s3,0x1
    502010ba:	4ca98993          	addi	s3,s3,1226 # 50202580 <tasks+0x140>
    502010be:	a029                	j	502010c8 <main+0x96>
    502010c0:	02848493          	addi	s1,s1,40
    502010c4:	03348c63          	beq	s1,s3,502010fc <main+0xca>
    502010c8:	0004c783          	lbu	a5,0(s1)
    502010cc:	dbf5                	beqz	a5,502010c0 <main+0x8e>
    502010ce:	00093783          	ld	a5,0(s2)
    502010d2:	4701                	li	a4,0
    502010d4:	4681                	li	a3,0
    502010d6:	4601                	li	a2,0
    502010d8:	4581                	li	a1,0
    502010da:	8526                	mv	a0,s1
    502010dc:	9782                	jalr	a5
    502010de:	00093783          	ld	a5,0(s2)
    502010e2:	4701                	li	a4,0
    502010e4:	4681                	li	a3,0
    502010e6:	4601                	li	a2,0
    502010e8:	4581                	li	a1,0
    502010ea:	00001517          	auipc	a0,0x1
    502010ee:	d5650513          	addi	a0,a0,-682 # 50201e40 <strcat+0xc2>
    502010f2:	02848493          	addi	s1,s1,40
    502010f6:	9782                	jalr	a5
    502010f8:	fd3498e3          	bne	s1,s3,502010c8 <main+0x96>
    502010fc:	00001797          	auipc	a5,0x1
    50201100:	ebc78793          	addi	a5,a5,-324 # 50201fb8 <strcat+0x23a>
    50201104:	6390                	ld	a2,0(a5)
    50201106:	6794                	ld	a3,8(a5)
    50201108:	6b98                	ld	a4,16(a5)
    5020110a:	00001797          	auipc	a5,0x1
    5020110e:	ec67d783          	lhu	a5,-314(a5) # 50201fd0 <strcat+0x252>
    50201112:	e832                	sd	a2,16(sp)
    50201114:	ec36                	sd	a3,24(sp)
    50201116:	02f11423          	sh	a5,40(sp) # 50500028 <__BSS_END__+0x2fd530>
    5020111a:	f03a                	sd	a4,32(sp)
    5020111c:	06600793          	li	a5,102
    50201120:	000a0463          	beqz	s4,50201128 <main+0xf6>
    50201124:	07400793          	li	a5,116
    50201128:	00001717          	auipc	a4,0x1
    5020112c:	31472703          	lw	a4,788(a4) # 5020243c <version>
    50201130:	00f10423          	sb	a5,8(sp)
    50201134:	00002597          	auipc	a1,0x2
    50201138:	9a658593          	addi	a1,a1,-1626 # 50202ada <buf+0x1a>
    5020113c:	0307071b          	addiw	a4,a4,48
    50201140:	081c                	addi	a5,sp,16
    50201142:	00e104a3          	sb	a4,9(sp)
    50201146:	4681                	li	a3,0
    50201148:	05f00613          	li	a2,95
    5020114c:	0007c703          	lbu	a4,0(a5)
    50201150:	00e40023          	sb	a4,0(s0)
    50201154:	00c71963          	bne	a4,a2,50201166 <main+0x134>
    50201158:	00268733          	add	a4,a3,sp
    5020115c:	00874703          	lbu	a4,8(a4)
    50201160:	2685                	addiw	a3,a3,1
    50201162:	00e40023          	sb	a4,0(s0)
    50201166:	0405                	addi	s0,s0,1
    50201168:	0785                	addi	a5,a5,1
    5020116a:	feb411e3          	bne	s0,a1,5020114c <main+0x11a>
    5020116e:	00001517          	auipc	a0,0x1
    50201172:	e3a50513          	addi	a0,a0,-454 # 50201fa8 <strcat+0x22a>
    50201176:	018000ef          	jal	5020118e <bios_putstr>
    5020117a:	00002517          	auipc	a0,0x2
    5020117e:	94650513          	addi	a0,a0,-1722 # 50202ac0 <buf>
    50201182:	00c000ef          	jal	5020118e <bios_putstr>
    50201186:	02b000ef          	jal	502019b0 <repl_loop>
    5020118a:	4a05                	li	s4,1
    5020118c:	bdd9                	j	50201062 <main+0x30>

000000005020118e <bios_putstr>:
    5020118e:	520007b7          	lui	a5,0x52000
    50201192:	f0078793          	addi	a5,a5,-256 # 51ffff00 <__BSS_END__+0x1dfd408>
    50201196:	639c                	ld	a5,0(a5)
    50201198:	4701                	li	a4,0
    5020119a:	4681                	li	a3,0
    5020119c:	4601                	li	a2,0
    5020119e:	4581                	li	a1,0
    502011a0:	8782                	jr	a5

00000000502011a2 <init_task_info>:
    502011a2:	7131                	addi	sp,sp,-192
    502011a4:	fd06                	sd	ra,184(sp)
    502011a6:	81010113          	addi	sp,sp,-2032
    502011aa:	1018                	addi	a4,sp,32
    502011ac:	0007051b          	sext.w	a0,a4
    502011b0:	4601                	li	a2,0
    502011b2:	4585                	li	a1,1
    502011b4:	e03a                	sd	a4,0(sp)
    502011b6:	13d000ef          	jal	50201af2 <sd_read>
    502011ba:	6702                	ld	a4,0(sp)
    502011bc:	0a054163          	bltz	a0,5020125e <init_task_info+0xbc>
    502011c0:	21615503          	lhu	a0,534(sp)
    502011c4:	cc02                	sw	zero,24(sp)
    502011c6:	0870                	addi	a2,sp,28
    502011c8:	083c                	addi	a5,sp,24
    502011ca:	1f874683          	lbu	a3,504(a4)
    502011ce:	0785                	addi	a5,a5,1
    502011d0:	0705                	addi	a4,a4,1
    502011d2:	fed78fa3          	sb	a3,-1(a5)
    502011d6:	fef61ae3          	bne	a2,a5,502011ca <init_task_info+0x28>
    502011da:	0005079b          	sext.w	a5,a0
    502011de:	c135                	beqz	a0,50201242 <init_task_info+0xa0>
    502011e0:	4741                	li	a4,16
    502011e2:	4662                	lw	a2,24(sp)
    502011e4:	86be                	mv	a3,a5
    502011e6:	06f74363          	blt	a4,a5,5020124c <init_task_info+0xaa>
    502011ea:	02800793          	li	a5,40
    502011ee:	02f686bb          	mulw	a3,a3,a5
    502011f2:	1ff67713          	andi	a4,a2,511
    502011f6:	141c                	addi	a5,sp,544
    502011f8:	0007851b          	sext.w	a0,a5
    502011fc:	0096561b          	srliw	a2,a2,0x9
    50201200:	e43a                	sd	a4,8(sp)
    50201202:	00e687bb          	addw	a5,a3,a4
    50201206:	1ff7f593          	andi	a1,a5,511
    5020120a:	00b035b3          	snez	a1,a1
    5020120e:	0097d79b          	srliw	a5,a5,0x9
    50201212:	95be                	add	a1,a1,a5
    50201214:	e036                	sd	a3,0(sp)
    50201216:	0dd000ef          	jal	50201af2 <sd_read>
    5020121a:	6682                	ld	a3,0(sp)
    5020121c:	6722                	ld	a4,8(sp)
    5020121e:	02054963          	bltz	a0,50201250 <init_task_info+0xae>
    50201222:	1410                	addi	a2,sp,544
    50201224:	00001797          	auipc	a5,0x1
    50201228:	21c78793          	addi	a5,a5,540 # 50202440 <tasks>
    5020122c:	9732                	add	a4,a4,a2
    5020122e:	00f68633          	add	a2,a3,a5
    50201232:	00074683          	lbu	a3,0(a4)
    50201236:	0785                	addi	a5,a5,1
    50201238:	0705                	addi	a4,a4,1
    5020123a:	fed78fa3          	sb	a3,-1(a5)
    5020123e:	fec79ae3          	bne	a5,a2,50201232 <init_task_info+0x90>
    50201242:	7f010113          	addi	sp,sp,2032
    50201246:	70ea                	ld	ra,184(sp)
    50201248:	6129                	addi	sp,sp,192
    5020124a:	8082                	ret
    5020124c:	86ba                	mv	a3,a4
    5020124e:	bf71                	j	502011ea <init_task_info+0x48>
    50201250:	00001517          	auipc	a0,0x1
    50201254:	b8850513          	addi	a0,a0,-1144 # 50201dd8 <strcat+0x5a>
    50201258:	f37ff0ef          	jal	5020118e <bios_putstr>
    5020125c:	b7dd                	j	50201242 <init_task_info+0xa0>
    5020125e:	00001517          	auipc	a0,0x1
    50201262:	b5250513          	addi	a0,a0,-1198 # 50201db0 <strcat+0x32>
    50201266:	f29ff0ef          	jal	5020118e <bios_putstr>
    5020126a:	bfe1                	j	50201242 <init_task_info+0xa0>

000000005020126c <next_token.constprop.0>:
    5020126c:	00800637          	lui	a2,0x800
    50201270:	064d                	addi	a2,a2,19 # 800013 <_start-0x4fa00fed>
    50201272:	872a                	mv	a4,a0
    50201274:	0626                	slli	a2,a2,0x9
    50201276:	02000513          	li	a0,32
    5020127a:	a011                	j	5020127e <next_token.constprop.0+0x12>
    5020127c:	0705                	addi	a4,a4,1
    5020127e:	00074783          	lbu	a5,0(a4)
    50201282:	00f656b3          	srl	a3,a2,a5
    50201286:	8a85                	andi	a3,a3,1
    50201288:	00f56463          	bltu	a0,a5,50201290 <next_token.constprop.0+0x24>
    5020128c:	fae5                	bnez	a3,5020127c <next_token.constprop.0+0x10>
    5020128e:	c7ad                	beqz	a5,502012f8 <next_token.constprop.0+0x8c>
    50201290:	862e                	mv	a2,a1
    50201292:	4681                	li	a3,0
    50201294:	4829                	li	a6,10
    50201296:	4e35                	li	t3,13
    50201298:	4321                	li	t1,8
    5020129a:	03f00893          	li	a7,63
    5020129e:	04f86763          	bltu	a6,a5,502012ec <next_token.constprop.0+0x80>
    502012a2:	00f36e63          	bltu	t1,a5,502012be <next_token.constprop.0+0x52>
    502012a6:	05168763          	beq	a3,a7,502012f4 <next_token.constprop.0+0x88>
    502012aa:	00f60023          	sb	a5,0(a2)
    502012ae:	00174783          	lbu	a5,1(a4)
    502012b2:	0705                	addi	a4,a4,1
    502012b4:	2685                	addiw	a3,a3,1
    502012b6:	0df7f513          	andi	a0,a5,223
    502012ba:	0605                	addi	a2,a2,1
    502012bc:	f16d                	bnez	a0,5020129e <next_token.constprop.0+0x32>
    502012be:	95b6                	add	a1,a1,a3
    502012c0:	853a                	mv	a0,a4
    502012c2:	00058023          	sb	zero,0(a1)
    502012c6:	00074783          	lbu	a5,0(a4)
    502012ca:	46a9                	li	a3,10
    502012cc:	45b5                	li	a1,13
    502012ce:	0df7f713          	andi	a4,a5,223
    502012d2:	4621                	li	a2,8
    502012d4:	cb05                	beqz	a4,50201304 <next_token.constprop.0+0x98>
    502012d6:	02f6e363          	bltu	a3,a5,502012fc <next_token.constprop.0+0x90>
    502012da:	02f66463          	bltu	a2,a5,50201302 <next_token.constprop.0+0x96>
    502012de:	00154783          	lbu	a5,1(a0)
    502012e2:	0505                	addi	a0,a0,1
    502012e4:	0df7f713          	andi	a4,a5,223
    502012e8:	f77d                	bnez	a4,502012d6 <next_token.constprop.0+0x6a>
    502012ea:	8082                	ret
    502012ec:	fdc789e3          	beq	a5,t3,502012be <next_token.constprop.0+0x52>
    502012f0:	fb169de3          	bne	a3,a7,502012aa <next_token.constprop.0+0x3e>
    502012f4:	03f58593          	addi	a1,a1,63
    502012f8:	853a                	mv	a0,a4
    502012fa:	b7e1                	j	502012c2 <next_token.constprop.0+0x56>
    502012fc:	feb791e3          	bne	a5,a1,502012de <next_token.constprop.0+0x72>
    50201300:	8082                	ret
    50201302:	8082                	ret
    50201304:	8082                	ret

0000000050201306 <batch_write>:
    50201306:	c5010113          	addi	sp,sp,-944
    5020130a:	0a9c                	addi	a5,sp,336
    5020130c:	0007851b          	sext.w	a0,a5
    50201310:	4601                	li	a2,0
    50201312:	4585                	li	a1,1
    50201314:	3a113423          	sd	ra,936(sp)
    50201318:	7da000ef          	jal	50201af2 <sd_read>
    5020131c:	2e054a63          	bltz	a0,50201610 <batch_write+0x30a>
    50201320:	37613823          	sd	s6,880(sp)
    50201324:	c402                	sw	zero,8(sp)
    50201326:	0a98                	addi	a4,sp,336
    50201328:	003c                	addi	a5,sp,8
    5020132a:	0070                	addi	a2,sp,12
    5020132c:	1f074683          	lbu	a3,496(a4)
    50201330:	0785                	addi	a5,a5,1
    50201332:	0705                	addi	a4,a4,1
    50201334:	fed78fa3          	sb	a3,-1(a5)
    50201338:	fec79ae3          	bne	a5,a2,5020132c <batch_write+0x26>
    5020133c:	4b22                	lw	s6,8(sp)
    5020133e:	520007b7          	lui	a5,0x52000
    50201342:	f0078793          	addi	a5,a5,-256 # 51ffff00 <__BSS_END__+0x1dfd408>
    50201346:	639c                	ld	a5,0(a5)
    50201348:	27605363          	blez	s6,502015ae <batch_write+0x2a8>
    5020134c:	3a813023          	sd	s0,928(sp)
    50201350:	38913c23          	sd	s1,920(sp)
    50201354:	39213823          	sd	s2,912(sp)
    50201358:	39313423          	sd	s3,904(sp)
    5020135c:	39413023          	sd	s4,896(sp)
    50201360:	37513c23          	sd	s5,888(sp)
    50201364:	37713423          	sd	s7,872(sp)
    50201368:	37813023          	sd	s8,864(sp)
    5020136c:	35913c23          	sd	s9,856(sp)
    50201370:	4701                	li	a4,0
    50201372:	4681                	li	a3,0
    50201374:	4601                	li	a2,0
    50201376:	4581                	li	a1,0
    50201378:	00001517          	auipc	a0,0x1
    5020137c:	a9850513          	addi	a0,a0,-1384 # 50201e10 <strcat+0x92>
    50201380:	9782                	jalr	a5
    50201382:	4401                	li	s0,0
    50201384:	74c000ef          	jal	50201ad0 <port_read_ch>
    50201388:	0ff57793          	zext.b	a5,a0
    5020138c:	0ff57513          	zext.b	a0,a0
    50201390:	fe05071b          	addiw	a4,a0,-32
    50201394:	ff378693          	addi	a3,a5,-13
    50201398:	0ff77713          	zext.b	a4,a4
    5020139c:	ff678613          	addi	a2,a5,-10
    502013a0:	ff878593          	addi	a1,a5,-8
    502013a4:	05f73713          	sltiu	a4,a4,95
    502013a8:	f8178793          	addi	a5,a5,-127
    502013ac:	ce95                	beqz	a3,502013e8 <batch_write+0xe2>
    502013ae:	ce0d                	beqz	a2,502013e8 <batch_write+0xe2>
    502013b0:	cd91                	beqz	a1,502013cc <batch_write+0xc6>
    502013b2:	0ff42693          	slti	a3,s0,255
    502013b6:	cb99                	beqz	a5,502013cc <batch_write+0xc6>
    502013b8:	d771                	beqz	a4,50201384 <batch_write+0x7e>
    502013ba:	d6e9                	beqz	a3,50201384 <batch_write+0x7e>
    502013bc:	002407b3          	add	a5,s0,sp
    502013c0:	04a78823          	sb	a0,80(a5)
    502013c4:	6e4000ef          	jal	50201aa8 <port_write_ch>
    502013c8:	2405                	addiw	s0,s0,1
    502013ca:	bf6d                	j	50201384 <batch_write+0x7e>
    502013cc:	4521                	li	a0,8
    502013ce:	fa805be3          	blez	s0,50201384 <batch_write+0x7e>
    502013d2:	6d6000ef          	jal	50201aa8 <port_write_ch>
    502013d6:	02000513          	li	a0,32
    502013da:	6ce000ef          	jal	50201aa8 <port_write_ch>
    502013de:	4521                	li	a0,8
    502013e0:	347d                	addiw	s0,s0,-1
    502013e2:	6c6000ef          	jal	50201aa8 <port_write_ch>
    502013e6:	bf79                	j	50201384 <batch_write+0x7e>
    502013e8:	940a                	add	s0,s0,sp
    502013ea:	04040823          	sb	zero,80(s0)
    502013ee:	52000437          	lui	s0,0x52000
    502013f2:	f0043783          	ld	a5,-256(s0) # 51ffff00 <__BSS_END__+0x1dfd408>
    502013f6:	4701                	li	a4,0
    502013f8:	4681                	li	a3,0
    502013fa:	4601                	li	a2,0
    502013fc:	4581                	li	a1,0
    502013fe:	00001517          	auipc	a0,0x1
    50201402:	a4250513          	addi	a0,a0,-1470 # 50201e40 <strcat+0xc2>
    50201406:	9782                	jalr	a5
    50201408:	f0043783          	ld	a5,-256(s0)
    5020140c:	4701                	li	a4,0
    5020140e:	4681                	li	a3,0
    50201410:	4601                	li	a2,0
    50201412:	4581                	li	a1,0
    50201414:	00001517          	auipc	a0,0x1
    50201418:	a3450513          	addi	a0,a0,-1484 # 50201e48 <strcat+0xca>
    5020141c:	9782                	jalr	a5
    5020141e:	f0043783          	ld	a5,-256(s0)
    50201422:	4701                	li	a4,0
    50201424:	4681                	li	a3,0
    50201426:	4601                	li	a2,0
    50201428:	4581                	li	a1,0
    5020142a:	0888                	addi	a0,sp,80
    5020142c:	9782                	jalr	a5
    5020142e:	f0043783          	ld	a5,-256(s0)
    50201432:	4701                	li	a4,0
    50201434:	4681                	li	a3,0
    50201436:	4601                	li	a2,0
    50201438:	4581                	li	a1,0
    5020143a:	00001517          	auipc	a0,0x1
    5020143e:	a0650513          	addi	a0,a0,-1530 # 50201e40 <strcat+0xc2>
    50201442:	9782                	jalr	a5
    50201444:	00001997          	auipc	s3,0x1
    50201448:	27c98993          	addi	s3,s3,636 # 502026c0 <out.1>
    5020144c:	87ce                	mv	a5,s3
    5020144e:	00001717          	auipc	a4,0x1
    50201452:	47270713          	addi	a4,a4,1138 # 502028c0 <bbuf.0>
    50201456:	0007b023          	sd	zero,0(a5)
    5020145a:	07a1                	addi	a5,a5,8
    5020145c:	fee79de3          	bne	a5,a4,50201456 <batch_write+0x150>
    50201460:	00800cb7          	lui	s9,0x800
    50201464:	0ccd                	addi	s9,s9,19 # 800013 <_start-0x4fa00fed>
    50201466:	0880                	addi	s0,sp,80
    50201468:	0ca6                	slli	s9,s9,0x9
    5020146a:	4b81                	li	s7,0
    5020146c:	00001a17          	auipc	s4,0x1
    50201470:	fd4a0a13          	addi	s4,s4,-44 # 50202440 <tasks>
    50201474:	02000c13          	li	s8,32
    50201478:	01010913          	addi	s2,sp,16
    5020147c:	1ff00a93          	li	s5,511
    50201480:	a011                	j	50201484 <batch_write+0x17e>
    50201482:	0405                	addi	s0,s0,1
    50201484:	00044703          	lbu	a4,0(s0)
    50201488:	00ec6763          	bltu	s8,a4,50201496 <batch_write+0x190>
    5020148c:	00ecd7b3          	srl	a5,s9,a4
    50201490:	8b85                	andi	a5,a5,1
    50201492:	fbe5                	bnez	a5,50201482 <batch_write+0x17c>
    50201494:	c765                	beqz	a4,5020157c <batch_write+0x276>
    50201496:	8522                	mv	a0,s0
    50201498:	85ca                	mv	a1,s2
    5020149a:	dd3ff0ef          	jal	5020126c <next_token.constprop.0>
    5020149e:	01014783          	lbu	a5,16(sp)
    502014a2:	842a                	mv	s0,a0
    502014a4:	d3e5                	beqz	a5,50201484 <batch_write+0x17e>
    502014a6:	00001497          	auipc	s1,0x1
    502014aa:	f9a48493          	addi	s1,s1,-102 # 50202440 <tasks>
    502014ae:	0004c783          	lbu	a5,0(s1)
    502014b2:	85ca                	mv	a1,s2
    502014b4:	8526                	mv	a0,s1
    502014b6:	cb81                	beqz	a5,502014c6 <batch_write+0x1c0>
    502014b8:	7fa000ef          	jal	50201cb2 <strcmp>
    502014bc:	02848493          	addi	s1,s1,40
    502014c0:	cd25                	beqz	a0,50201538 <batch_write+0x232>
    502014c2:	fe9996e3          	bne	s3,s1,502014ae <batch_write+0x1a8>
    502014c6:	52000437          	lui	s0,0x52000
    502014ca:	f0043783          	ld	a5,-256(s0) # 51ffff00 <__BSS_END__+0x1dfd408>
    502014ce:	4701                	li	a4,0
    502014d0:	4681                	li	a3,0
    502014d2:	4601                	li	a2,0
    502014d4:	4581                	li	a1,0
    502014d6:	00001517          	auipc	a0,0x1
    502014da:	9ca50513          	addi	a0,a0,-1590 # 50201ea0 <strcat+0x122>
    502014de:	9782                	jalr	a5
    502014e0:	f0043783          	ld	a5,-256(s0)
    502014e4:	4701                	li	a4,0
    502014e6:	4681                	li	a3,0
    502014e8:	4601                	li	a2,0
    502014ea:	4581                	li	a1,0
    502014ec:	854a                	mv	a0,s2
    502014ee:	9782                	jalr	a5
    502014f0:	f0043783          	ld	a5,-256(s0)
    502014f4:	4701                	li	a4,0
    502014f6:	4681                	li	a3,0
    502014f8:	4601                	li	a2,0
    502014fa:	4581                	li	a1,0
    502014fc:	00001517          	auipc	a0,0x1
    50201500:	94450513          	addi	a0,a0,-1724 # 50201e40 <strcat+0xc2>
    50201504:	9782                	jalr	a5
    50201506:	3a013403          	ld	s0,928(sp)
    5020150a:	3a813083          	ld	ra,936(sp)
    5020150e:	39813483          	ld	s1,920(sp)
    50201512:	39013903          	ld	s2,912(sp)
    50201516:	38813983          	ld	s3,904(sp)
    5020151a:	38013a03          	ld	s4,896(sp)
    5020151e:	37813a83          	ld	s5,888(sp)
    50201522:	37013b03          	ld	s6,880(sp)
    50201526:	36813b83          	ld	s7,872(sp)
    5020152a:	36013c03          	ld	s8,864(sp)
    5020152e:	35813c83          	ld	s9,856(sp)
    50201532:	3b010113          	addi	sp,sp,944
    50201536:	8082                	ret
    50201538:	854a                	mv	a0,s2
    5020153a:	75a000ef          	jal	50201c94 <strlen>
    5020153e:	017505bb          	addw	a1,a0,s7
    50201542:	0015881b          	addiw	a6,a1,1
    50201546:	0f0ae863          	bltu	s5,a6,50201636 <batch_write+0x330>
    5020154a:	1502                	slli	a0,a0,0x20
    5020154c:	9101                	srli	a0,a0,0x20
    5020154e:	c105                	beqz	a0,5020156e <batch_write+0x268>
    50201550:	020b9713          	slli	a4,s7,0x20
    50201554:	9301                	srli	a4,a4,0x20
    50201556:	00a90633          	add	a2,s2,a0
    5020155a:	87ca                	mv	a5,s2
    5020155c:	974e                	add	a4,a4,s3
    5020155e:	0007c683          	lbu	a3,0(a5)
    50201562:	0785                	addi	a5,a5,1
    50201564:	0705                	addi	a4,a4,1
    50201566:	fed70fa3          	sb	a3,-1(a4)
    5020156a:	fec79ae3          	bne	a5,a2,5020155e <batch_write+0x258>
    5020156e:	1582                	slli	a1,a1,0x20
    50201570:	9181                	srli	a1,a1,0x20
    50201572:	95d2                	add	a1,a1,s4
    50201574:	8bc2                	mv	s7,a6
    50201576:	29858023          	sb	s8,640(a1)
    5020157a:	b729                	j	50201484 <batch_write+0x17e>
    5020157c:	040b8963          	beqz	s7,502015ce <batch_write+0x2c8>
    50201580:	fffb879b          	addiw	a5,s7,-1
    50201584:	1782                	slli	a5,a5,0x20
    50201586:	9381                	srli	a5,a5,0x20
    50201588:	97ce                	add	a5,a5,s3
    5020158a:	0007c703          	lbu	a4,0(a5)
    5020158e:	07870b63          	beq	a4,s8,50201604 <batch_write+0x2fe>
    50201592:	001b879b          	addiw	a5,s7,1
    50201596:	1ff00713          	li	a4,511
    5020159a:	08f76e63          	bltu	a4,a5,50201636 <batch_write+0x330>
    5020159e:	020b9793          	slli	a5,s7,0x20
    502015a2:	9381                	srli	a5,a5,0x20
    502015a4:	4729                	li	a4,10
    502015a6:	97d2                	add	a5,a5,s4
    502015a8:	28e78023          	sb	a4,640(a5)
    502015ac:	a025                	j	502015d4 <batch_write+0x2ce>
    502015ae:	4701                	li	a4,0
    502015b0:	4681                	li	a3,0
    502015b2:	4601                	li	a2,0
    502015b4:	4581                	li	a1,0
    502015b6:	00001517          	auipc	a0,0x1
    502015ba:	84250513          	addi	a0,a0,-1982 # 50201df8 <strcat+0x7a>
    502015be:	9782                	jalr	a5
    502015c0:	3a813083          	ld	ra,936(sp)
    502015c4:	37013b03          	ld	s6,880(sp)
    502015c8:	3b010113          	addi	sp,sp,944
    502015cc:	8082                	ret
    502015ce:	47a9                	li	a5,10
    502015d0:	28fa0023          	sb	a5,640(s4)
    502015d4:	409b5613          	srai	a2,s6,0x9
    502015d8:	4585                	li	a1,1
    502015da:	0009851b          	sext.w	a0,s3
    502015de:	53c000ef          	jal	50201b1a <sd_write>
    502015e2:	520007b7          	lui	a5,0x52000
    502015e6:	f0078793          	addi	a5,a5,-256 # 51ffff00 <__BSS_END__+0x1dfd408>
    502015ea:	639c                	ld	a5,0(a5)
    502015ec:	4701                	li	a4,0
    502015ee:	4681                	li	a3,0
    502015f0:	4601                	li	a2,0
    502015f2:	4581                	li	a1,0
    502015f4:	06054063          	bltz	a0,50201654 <batch_write+0x34e>
    502015f8:	00001517          	auipc	a0,0x1
    502015fc:	89850513          	addi	a0,a0,-1896 # 50201e90 <strcat+0x112>
    50201600:	9782                	jalr	a5
    50201602:	b711                	j	50201506 <batch_write+0x200>
    50201604:	4729                	li	a4,10
    50201606:	00e78023          	sb	a4,0(a5)
    5020160a:	ee0bcee3          	bltz	s7,50201506 <batch_write+0x200>
    5020160e:	b7d9                	j	502015d4 <batch_write+0x2ce>
    50201610:	520007b7          	lui	a5,0x52000
    50201614:	f0078793          	addi	a5,a5,-256 # 51ffff00 <__BSS_END__+0x1dfd408>
    50201618:	639c                	ld	a5,0(a5)
    5020161a:	4701                	li	a4,0
    5020161c:	4681                	li	a3,0
    5020161e:	4601                	li	a2,0
    50201620:	4581                	li	a1,0
    50201622:	00000517          	auipc	a0,0x0
    50201626:	78e50513          	addi	a0,a0,1934 # 50201db0 <strcat+0x32>
    5020162a:	9782                	jalr	a5
    5020162c:	3a813083          	ld	ra,936(sp)
    50201630:	3b010113          	addi	sp,sp,944
    50201634:	8082                	ret
    50201636:	520007b7          	lui	a5,0x52000
    5020163a:	f0078793          	addi	a5,a5,-256 # 51ffff00 <__BSS_END__+0x1dfd408>
    5020163e:	639c                	ld	a5,0(a5)
    50201640:	4701                	li	a4,0
    50201642:	4681                	li	a3,0
    50201644:	4601                	li	a2,0
    50201646:	4581                	li	a1,0
    50201648:	00001517          	auipc	a0,0x1
    5020164c:	81050513          	addi	a0,a0,-2032 # 50201e58 <strcat+0xda>
    50201650:	9782                	jalr	a5
    50201652:	bd55                	j	50201506 <batch_write+0x200>
    50201654:	00001517          	auipc	a0,0x1
    50201658:	81c50513          	addi	a0,a0,-2020 # 50201e70 <strcat+0xf2>
    5020165c:	9782                	jalr	a5
    5020165e:	b565                	j	50201506 <batch_write+0x200>

0000000050201660 <print_int>:
    50201660:	c14d                	beqz	a0,50201702 <print_int+0xa2>
    50201662:	7179                	addi	sp,sp,-48
    50201664:	ec26                	sd	s1,24(sp)
    50201666:	f406                	sd	ra,40(sp)
    50201668:	f022                	sd	s0,32(sp)
    5020166a:	e84a                	sd	s2,16(sp)
    5020166c:	84aa                	mv	s1,a0
    5020166e:	06054c63          	bltz	a0,502016e6 <print_int+0x86>
    50201672:	66666537          	lui	a0,0x66666
    50201676:	840a                	mv	s0,sp
    50201678:	860a                	mv	a2,sp
    5020167a:	66750513          	addi	a0,a0,1639 # 66666667 <__BSS_END__+0x16463b6f>
    5020167e:	02a48733          	mul	a4,s1,a0
    50201682:	41f4d69b          	sraiw	a3,s1,0x1f
    50201686:	85b2                	mv	a1,a2
    50201688:	0605                	addi	a2,a2,1
    5020168a:	9709                	srai	a4,a4,0x22
    5020168c:	9f15                	subw	a4,a4,a3
    5020168e:	0027169b          	slliw	a3,a4,0x2
    50201692:	9eb9                	addw	a3,a3,a4
    50201694:	0016969b          	slliw	a3,a3,0x1
    50201698:	40d487bb          	subw	a5,s1,a3
    5020169c:	0307879b          	addiw	a5,a5,48
    502016a0:	fef60fa3          	sb	a5,-1(a2)
    502016a4:	84ba                	mv	s1,a4
    502016a6:	ff61                	bnez	a4,5020167e <print_int+0x1e>
    502016a8:	9d81                	subw	a1,a1,s0
    502016aa:	fff40493          	addi	s1,s0,-1
    502016ae:	02059793          	slli	a5,a1,0x20
    502016b2:	9381                	srli	a5,a5,0x20
    502016b4:	94ae                	add	s1,s1,a1
    502016b6:	52000937          	lui	s2,0x52000
    502016ba:	8c9d                	sub	s1,s1,a5
    502016bc:	942e                	add	s0,s0,a1
    502016be:	f0890913          	addi	s2,s2,-248 # 51ffff08 <__BSS_END__+0x1dfd410>
    502016c2:	00044503          	lbu	a0,0(s0)
    502016c6:	00093783          	ld	a5,0(s2)
    502016ca:	4701                	li	a4,0
    502016cc:	4681                	li	a3,0
    502016ce:	4601                	li	a2,0
    502016d0:	4581                	li	a1,0
    502016d2:	147d                	addi	s0,s0,-1
    502016d4:	9782                	jalr	a5
    502016d6:	fe9416e3          	bne	s0,s1,502016c2 <print_int+0x62>
    502016da:	70a2                	ld	ra,40(sp)
    502016dc:	7402                	ld	s0,32(sp)
    502016de:	64e2                	ld	s1,24(sp)
    502016e0:	6942                	ld	s2,16(sp)
    502016e2:	6145                	addi	sp,sp,48
    502016e4:	8082                	ret
    502016e6:	52000737          	lui	a4,0x52000
    502016ea:	f0873803          	ld	a6,-248(a4) # 51ffff08 <__BSS_END__+0x1dfd410>
    502016ee:	4681                	li	a3,0
    502016f0:	4701                	li	a4,0
    502016f2:	4601                	li	a2,0
    502016f4:	4581                	li	a1,0
    502016f6:	02d00513          	li	a0,45
    502016fa:	9802                	jalr	a6
    502016fc:	409004bb          	negw	s1,s1
    50201700:	bf8d                	j	50201672 <print_int+0x12>
    50201702:	520007b7          	lui	a5,0x52000
    50201706:	f0878793          	addi	a5,a5,-248 # 51ffff08 <__BSS_END__+0x1dfd410>
    5020170a:	639c                	ld	a5,0(a5)
    5020170c:	4701                	li	a4,0
    5020170e:	4681                	li	a3,0
    50201710:	4601                	li	a2,0
    50201712:	4581                	li	a1,0
    50201714:	03000513          	li	a0,48
    50201718:	8782                	jr	a5

000000005020171a <batch_run>:
    5020171a:	d7010113          	addi	sp,sp,-656
    5020171e:	089c                	addi	a5,sp,80
    50201720:	0007851b          	sext.w	a0,a5
    50201724:	4601                	li	a2,0
    50201726:	4585                	li	a1,1
    50201728:	28113423          	sd	ra,648(sp)
    5020172c:	3c6000ef          	jal	50201af2 <sd_read>
    50201730:	20054563          	bltz	a0,5020193a <batch_run+0x220>
    50201734:	c402                	sw	zero,8(sp)
    50201736:	0898                	addi	a4,sp,80
    50201738:	003c                	addi	a5,sp,8
    5020173a:	0070                	addi	a2,sp,12
    5020173c:	1f074683          	lbu	a3,496(a4)
    50201740:	0785                	addi	a5,a5,1
    50201742:	0705                	addi	a4,a4,1
    50201744:	fed78fa3          	sb	a3,-1(a5)
    50201748:	fec79ae3          	bne	a5,a2,5020173c <batch_run+0x22>
    5020174c:	47a2                	lw	a5,8(sp)
    5020174e:	20f05963          	blez	a5,50201960 <batch_run+0x246>
    50201752:	505107b7          	lui	a5,0x50510
    50201756:	28813023          	sd	s0,640(sp)
    5020175a:	00001517          	auipc	a0,0x1
    5020175e:	16650513          	addi	a0,a0,358 # 502028c0 <bbuf.0>
    50201762:	0007a023          	sw	zero,0(a5) # 50510000 <__BSS_END__+0x30d508>
    50201766:	00001717          	auipc	a4,0x1
    5020176a:	35a70713          	addi	a4,a4,858 # 50202ac0 <buf>
    5020176e:	87aa                	mv	a5,a0
    50201770:	0007b023          	sd	zero,0(a5)
    50201774:	07a1                	addi	a5,a5,8
    50201776:	fee79de3          	bne	a5,a4,50201770 <batch_run+0x56>
    5020177a:	47a2                	lw	a5,8(sp)
    5020177c:	2501                	sext.w	a0,a0
    5020177e:	4585                	li	a1,1
    50201780:	41f7d61b          	sraiw	a2,a5,0x1f
    50201784:	0176561b          	srliw	a2,a2,0x17
    50201788:	9e3d                	addw	a2,a2,a5
    5020178a:	8625                	srai	a2,a2,0x9
    5020178c:	366000ef          	jal	50201af2 <sd_read>
    50201790:	00001417          	auipc	s0,0x1
    50201794:	13040413          	addi	s0,s0,304 # 502028c0 <bbuf.0>
    50201798:	1e054763          	bltz	a0,50201986 <batch_run+0x26c>
    5020179c:	25513c23          	sd	s5,600(sp)
    502017a0:	00800ab7          	lui	s5,0x800
    502017a4:	27313423          	sd	s3,616(sp)
    502017a8:	0acd                	addi	s5,s5,19 # 800013 <_start-0x4fa00fed>
    502017aa:	79f9                	lui	s3,0xffffe
    502017ac:	27213823          	sd	s2,624(sp)
    502017b0:	27413023          	sd	s4,608(sp)
    502017b4:	26913c23          	sd	s1,632(sp)
    502017b8:	0aa6                	slli	s5,s5,0x9
    502017ba:	bfe98993          	addi	s3,s3,-1026 # ffffffffffffdbfe <__BSS_END__+0xffffffffafdfb106>
    502017be:	02000a13          	li	s4,32
    502017c2:	00001917          	auipc	s2,0x1
    502017c6:	efe90913          	addi	s2,s2,-258 # 502026c0 <out.1>
    502017ca:	a011                	j	502017ce <batch_run+0xb4>
    502017cc:	0405                	addi	s0,s0,1
    502017ce:	00044703          	lbu	a4,0(s0)
    502017d2:	08ea6463          	bltu	s4,a4,5020185a <batch_run+0x140>
    502017d6:	00ead7b3          	srl	a5,s5,a4
    502017da:	8b85                	andi	a5,a5,1
    502017dc:	fbe5                	bnez	a5,502017cc <batch_run+0xb2>
    502017de:	10070463          	beqz	a4,502018e6 <batch_run+0x1cc>
    502017e2:	8522                	mv	a0,s0
    502017e4:	080c                	addi	a1,sp,16
    502017e6:	a87ff0ef          	jal	5020126c <next_token.constprop.0>
    502017ea:	01014783          	lbu	a5,16(sp)
    502017ee:	842a                	mv	s0,a0
    502017f0:	dff9                	beqz	a5,502017ce <batch_run+0xb4>
    502017f2:	00001497          	auipc	s1,0x1
    502017f6:	c4e48493          	addi	s1,s1,-946 # 50202440 <tasks>
    502017fa:	0004c783          	lbu	a5,0(s1)
    502017fe:	080c                	addi	a1,sp,16
    50201800:	8526                	mv	a0,s1
    50201802:	cb81                	beqz	a5,50201812 <batch_run+0xf8>
    50201804:	4ae000ef          	jal	50201cb2 <strcmp>
    50201808:	02848493          	addi	s1,s1,40
    5020180c:	c535                	beqz	a0,50201878 <batch_run+0x15e>
    5020180e:	fe9916e3          	bne	s2,s1,502017fa <batch_run+0xe0>
    50201812:	520004b7          	lui	s1,0x52000
    50201816:	f004b783          	ld	a5,-256(s1) # 51ffff00 <__BSS_END__+0x1dfd408>
    5020181a:	4701                	li	a4,0
    5020181c:	4681                	li	a3,0
    5020181e:	4601                	li	a2,0
    50201820:	4581                	li	a1,0
    50201822:	00000517          	auipc	a0,0x0
    50201826:	6be50513          	addi	a0,a0,1726 # 50201ee0 <strcat+0x162>
    5020182a:	9782                	jalr	a5
    5020182c:	f004b783          	ld	a5,-256(s1)
    50201830:	0808                	addi	a0,sp,16
    50201832:	4701                	li	a4,0
    50201834:	4681                	li	a3,0
    50201836:	4601                	li	a2,0
    50201838:	4581                	li	a1,0
    5020183a:	9782                	jalr	a5
    5020183c:	f004b783          	ld	a5,-256(s1)
    50201840:	4701                	li	a4,0
    50201842:	4681                	li	a3,0
    50201844:	4601                	li	a2,0
    50201846:	4581                	li	a1,0
    50201848:	00000517          	auipc	a0,0x0
    5020184c:	5f850513          	addi	a0,a0,1528 # 50201e40 <strcat+0xc2>
    50201850:	9782                	jalr	a5
    50201852:	00044703          	lbu	a4,0(s0)
    50201856:	f8ea70e3          	bgeu	s4,a4,502017d6 <batch_run+0xbc>
    5020185a:	02300793          	li	a5,35
    5020185e:	f8f712e3          	bne	a4,a5,502017e2 <batch_run+0xc8>
    50201862:	46b5                	li	a3,13
    50201864:	00144703          	lbu	a4,1(s0)
    50201868:	0405                	addi	s0,s0,1
    5020186a:	40e9d7b3          	sra	a5,s3,a4
    5020186e:	8b85                	andi	a5,a5,1
    50201870:	fee6eae3          	bltu	a3,a4,50201864 <batch_run+0x14a>
    50201874:	fbe5                	bnez	a5,50201864 <batch_run+0x14a>
    50201876:	bfa1                	j	502017ce <batch_run+0xb4>
    50201878:	520004b7          	lui	s1,0x52000
    5020187c:	f004b783          	ld	a5,-256(s1) # 51ffff00 <__BSS_END__+0x1dfd408>
    50201880:	4701                	li	a4,0
    50201882:	4681                	li	a3,0
    50201884:	4601                	li	a2,0
    50201886:	4581                	li	a1,0
    50201888:	00000517          	auipc	a0,0x0
    5020188c:	67850513          	addi	a0,a0,1656 # 50201f00 <strcat+0x182>
    50201890:	9782                	jalr	a5
    50201892:	f004b783          	ld	a5,-256(s1)
    50201896:	0808                	addi	a0,sp,16
    50201898:	4701                	li	a4,0
    5020189a:	4681                	li	a3,0
    5020189c:	4601                	li	a2,0
    5020189e:	4581                	li	a1,0
    502018a0:	9782                	jalr	a5
    502018a2:	0808                	addi	a0,sp,16
    502018a4:	f0048493          	addi	s1,s1,-256
    502018a8:	29a000ef          	jal	50201b42 <load_task_img>
    502018ac:	cd25                	beqz	a0,50201924 <batch_run+0x20a>
    502018ae:	9502                	jalr	a0
    502018b0:	609c                	ld	a5,0(s1)
    502018b2:	4701                	li	a4,0
    502018b4:	4681                	li	a3,0
    502018b6:	4601                	li	a2,0
    502018b8:	4581                	li	a1,0
    502018ba:	00000517          	auipc	a0,0x0
    502018be:	66650513          	addi	a0,a0,1638 # 50201f20 <strcat+0x1a2>
    502018c2:	9782                	jalr	a5
    502018c4:	505107b7          	lui	a5,0x50510
    502018c8:	4388                	lw	a0,0(a5)
    502018ca:	d97ff0ef          	jal	50201660 <print_int>
    502018ce:	609c                	ld	a5,0(s1)
    502018d0:	4701                	li	a4,0
    502018d2:	4681                	li	a3,0
    502018d4:	4601                	li	a2,0
    502018d6:	4581                	li	a1,0
    502018d8:	00000517          	auipc	a0,0x0
    502018dc:	65850513          	addi	a0,a0,1624 # 50201f30 <strcat+0x1b2>
    502018e0:	9782                	jalr	a5
    502018e2:	609c                	ld	a5,0(s1)
    502018e4:	bfb1                	j	50201840 <batch_run+0x126>
    502018e6:	520007b7          	lui	a5,0x52000
    502018ea:	f0078793          	addi	a5,a5,-256 # 51ffff00 <__BSS_END__+0x1dfd408>
    502018ee:	639c                	ld	a5,0(a5)
    502018f0:	4701                	li	a4,0
    502018f2:	4681                	li	a3,0
    502018f4:	4601                	li	a2,0
    502018f6:	4581                	li	a1,0
    502018f8:	00000517          	auipc	a0,0x0
    502018fc:	64050513          	addi	a0,a0,1600 # 50201f38 <strcat+0x1ba>
    50201900:	9782                	jalr	a5
    50201902:	28813083          	ld	ra,648(sp)
    50201906:	28013403          	ld	s0,640(sp)
    5020190a:	27813483          	ld	s1,632(sp)
    5020190e:	27013903          	ld	s2,624(sp)
    50201912:	26813983          	ld	s3,616(sp)
    50201916:	26013a03          	ld	s4,608(sp)
    5020191a:	25813a83          	ld	s5,600(sp)
    5020191e:	29010113          	addi	sp,sp,656
    50201922:	8082                	ret
    50201924:	609c                	ld	a5,0(s1)
    50201926:	4701                	li	a4,0
    50201928:	4681                	li	a3,0
    5020192a:	4601                	li	a2,0
    5020192c:	4581                	li	a1,0
    5020192e:	00000517          	auipc	a0,0x0
    50201932:	5da50513          	addi	a0,a0,1498 # 50201f08 <strcat+0x18a>
    50201936:	9782                	jalr	a5
    50201938:	bd59                	j	502017ce <batch_run+0xb4>
    5020193a:	520007b7          	lui	a5,0x52000
    5020193e:	f0078793          	addi	a5,a5,-256 # 51ffff00 <__BSS_END__+0x1dfd408>
    50201942:	639c                	ld	a5,0(a5)
    50201944:	4701                	li	a4,0
    50201946:	4681                	li	a3,0
    50201948:	4601                	li	a2,0
    5020194a:	4581                	li	a1,0
    5020194c:	00000517          	auipc	a0,0x0
    50201950:	46450513          	addi	a0,a0,1124 # 50201db0 <strcat+0x32>
    50201954:	9782                	jalr	a5
    50201956:	28813083          	ld	ra,648(sp)
    5020195a:	29010113          	addi	sp,sp,656
    5020195e:	8082                	ret
    50201960:	520007b7          	lui	a5,0x52000
    50201964:	f0078793          	addi	a5,a5,-256 # 51ffff00 <__BSS_END__+0x1dfd408>
    50201968:	639c                	ld	a5,0(a5)
    5020196a:	4701                	li	a4,0
    5020196c:	4681                	li	a3,0
    5020196e:	4601                	li	a2,0
    50201970:	4581                	li	a1,0
    50201972:	00000517          	auipc	a0,0x0
    50201976:	48650513          	addi	a0,a0,1158 # 50201df8 <strcat+0x7a>
    5020197a:	9782                	jalr	a5
    5020197c:	28813083          	ld	ra,648(sp)
    50201980:	29010113          	addi	sp,sp,656
    50201984:	8082                	ret
    50201986:	520007b7          	lui	a5,0x52000
    5020198a:	f0078793          	addi	a5,a5,-256 # 51ffff00 <__BSS_END__+0x1dfd408>
    5020198e:	639c                	ld	a5,0(a5)
    50201990:	4701                	li	a4,0
    50201992:	4681                	li	a3,0
    50201994:	4601                	li	a2,0
    50201996:	4581                	li	a1,0
    50201998:	00000517          	auipc	a0,0x0
    5020199c:	52850513          	addi	a0,a0,1320 # 50201ec0 <strcat+0x142>
    502019a0:	9782                	jalr	a5
    502019a2:	28813083          	ld	ra,648(sp)
    502019a6:	28013403          	ld	s0,640(sp)
    502019aa:	29010113          	addi	sp,sp,656
    502019ae:	8082                	ret

00000000502019b0 <repl_loop>:
    502019b0:	7139                	addi	sp,sp,-64
    502019b2:	f426                	sd	s1,40(sp)
    502019b4:	520004b7          	lui	s1,0x52000
    502019b8:	fc06                	sd	ra,56(sp)
    502019ba:	f822                	sd	s0,48(sp)
    502019bc:	f0048493          	addi	s1,s1,-256 # 51ffff00 <__BSS_END__+0x1dfd408>
    502019c0:	609c                	ld	a5,0(s1)
    502019c2:	4701                	li	a4,0
    502019c4:	4681                	li	a3,0
    502019c6:	4601                	li	a2,0
    502019c8:	4581                	li	a1,0
    502019ca:	00000517          	auipc	a0,0x0
    502019ce:	57e50513          	addi	a0,a0,1406 # 50201f48 <strcat+0x1ca>
    502019d2:	9782                	jalr	a5
    502019d4:	4401                	li	s0,0
    502019d6:	0fa000ef          	jal	50201ad0 <port_read_ch>
    502019da:	0ff57693          	zext.b	a3,a0
    502019de:	0ff57793          	zext.b	a5,a0
    502019e2:	fe06871b          	addiw	a4,a3,-32
    502019e6:	ff378613          	addi	a2,a5,-13
    502019ea:	0ff77713          	zext.b	a4,a4
    502019ee:	ff678593          	addi	a1,a5,-10
    502019f2:	ff878813          	addi	a6,a5,-8
    502019f6:	05f73713          	sltiu	a4,a4,95
    502019fa:	f8178793          	addi	a5,a5,-127
    502019fe:	c229                	beqz	a2,50201a40 <repl_loop+0x90>
    50201a00:	c1a1                	beqz	a1,50201a40 <repl_loop+0x90>
    50201a02:	02080163          	beqz	a6,50201a24 <repl_loop+0x74>
    50201a06:	01f42613          	slti	a2,s0,31
    50201a0a:	cf89                	beqz	a5,50201a24 <repl_loop+0x74>
    50201a0c:	d769                	beqz	a4,502019d6 <repl_loop+0x26>
    50201a0e:	02040793          	addi	a5,s0,32
    50201a12:	978a                	add	a5,a5,sp
    50201a14:	8536                	mv	a0,a3
    50201a16:	d261                	beqz	a2,502019d6 <repl_loop+0x26>
    50201a18:	fed78023          	sb	a3,-32(a5)
    50201a1c:	08c000ef          	jal	50201aa8 <port_write_ch>
    50201a20:	2405                	addiw	s0,s0,1
    50201a22:	bf55                	j	502019d6 <repl_loop+0x26>
    50201a24:	4521                	li	a0,8
    50201a26:	fa8058e3          	blez	s0,502019d6 <repl_loop+0x26>
    50201a2a:	07e000ef          	jal	50201aa8 <port_write_ch>
    50201a2e:	02000513          	li	a0,32
    50201a32:	076000ef          	jal	50201aa8 <port_write_ch>
    50201a36:	4521                	li	a0,8
    50201a38:	347d                	addiw	s0,s0,-1
    50201a3a:	06e000ef          	jal	50201aa8 <port_write_ch>
    50201a3e:	bf61                	j	502019d6 <repl_loop+0x26>
    50201a40:	940a                	add	s0,s0,sp
    50201a42:	00040023          	sb	zero,0(s0)
    50201a46:	609c                	ld	a5,0(s1)
    50201a48:	4581                	li	a1,0
    50201a4a:	4701                	li	a4,0
    50201a4c:	4681                	li	a3,0
    50201a4e:	4601                	li	a2,0
    50201a50:	00000517          	auipc	a0,0x0
    50201a54:	3f050513          	addi	a0,a0,1008 # 50201e40 <strcat+0xc2>
    50201a58:	9782                	jalr	a5
    50201a5a:	850a                	mv	a0,sp
    50201a5c:	00000597          	auipc	a1,0x0
    50201a60:	50458593          	addi	a1,a1,1284 # 50201f60 <strcat+0x1e2>
    50201a64:	24e000ef          	jal	50201cb2 <strcmp>
    50201a68:	e501                	bnez	a0,50201a70 <repl_loop+0xc0>
    50201a6a:	89dff0ef          	jal	50201306 <batch_write>
    50201a6e:	bf89                	j	502019c0 <repl_loop+0x10>
    50201a70:	00000597          	auipc	a1,0x0
    50201a74:	50058593          	addi	a1,a1,1280 # 50201f70 <strcat+0x1f2>
    50201a78:	850a                	mv	a0,sp
    50201a7a:	238000ef          	jal	50201cb2 <strcmp>
    50201a7e:	c519                	beqz	a0,50201a8c <repl_loop+0xdc>
    50201a80:	850a                	mv	a0,sp
    50201a82:	0c0000ef          	jal	50201b42 <load_task_img>
    50201a86:	c511                	beqz	a0,50201a92 <repl_loop+0xe2>
    50201a88:	9502                	jalr	a0
    50201a8a:	bf1d                	j	502019c0 <repl_loop+0x10>
    50201a8c:	c8fff0ef          	jal	5020171a <batch_run>
    50201a90:	bf05                	j	502019c0 <repl_loop+0x10>
    50201a92:	609c                	ld	a5,0(s1)
    50201a94:	4701                	li	a4,0
    50201a96:	4681                	li	a3,0
    50201a98:	4601                	li	a2,0
    50201a9a:	4581                	li	a1,0
    50201a9c:	00000517          	auipc	a0,0x0
    50201aa0:	4e450513          	addi	a0,a0,1252 # 50201f80 <strcat+0x202>
    50201aa4:	9782                	jalr	a5
    50201aa6:	bf29                	j	502019c0 <repl_loop+0x10>

0000000050201aa8 <port_write_ch>:
    50201aa8:	50150337          	lui	t1,0x50150
    50201aac:	4885                	li	a7,1
    50201aae:	4801                	li	a6,0
    50201ab0:	4781                	li	a5,0
    50201ab2:	4701                	li	a4,0
    50201ab4:	4681                	li	a3,0
    50201ab6:	4601                	li	a2,0
    50201ab8:	4581                	li	a1,0
    50201aba:	8302                	jr	t1

0000000050201abc <port_write>:
    50201abc:	50150337          	lui	t1,0x50150
    50201ac0:	48a5                	li	a7,9
    50201ac2:	4801                	li	a6,0
    50201ac4:	4781                	li	a5,0
    50201ac6:	4701                	li	a4,0
    50201ac8:	4681                	li	a3,0
    50201aca:	4601                	li	a2,0
    50201acc:	4581                	li	a1,0
    50201ace:	8302                	jr	t1

0000000050201ad0 <port_read_ch>:
    50201ad0:	1141                	addi	sp,sp,-16
    50201ad2:	e406                	sd	ra,8(sp)
    50201ad4:	50150337          	lui	t1,0x50150
    50201ad8:	4889                	li	a7,2
    50201ada:	4801                	li	a6,0
    50201adc:	4781                	li	a5,0
    50201ade:	4701                	li	a4,0
    50201ae0:	4681                	li	a3,0
    50201ae2:	4601                	li	a2,0
    50201ae4:	4581                	li	a1,0
    50201ae6:	4501                	li	a0,0
    50201ae8:	9302                	jalr	t1
    50201aea:	60a2                	ld	ra,8(sp)
    50201aec:	2501                	sext.w	a0,a0
    50201aee:	0141                	addi	sp,sp,16
    50201af0:	8082                	ret

0000000050201af2 <sd_read>:
    50201af2:	1141                	addi	sp,sp,-16
    50201af4:	1502                	slli	a0,a0,0x20
    50201af6:	1582                	slli	a1,a1,0x20
    50201af8:	1602                	slli	a2,a2,0x20
    50201afa:	e406                	sd	ra,8(sp)
    50201afc:	9101                	srli	a0,a0,0x20
    50201afe:	9181                	srli	a1,a1,0x20
    50201b00:	9201                	srli	a2,a2,0x20
    50201b02:	50150337          	lui	t1,0x50150
    50201b06:	48ad                	li	a7,11
    50201b08:	4801                	li	a6,0
    50201b0a:	4781                	li	a5,0
    50201b0c:	4701                	li	a4,0
    50201b0e:	4681                	li	a3,0
    50201b10:	9302                	jalr	t1
    50201b12:	60a2                	ld	ra,8(sp)
    50201b14:	2501                	sext.w	a0,a0
    50201b16:	0141                	addi	sp,sp,16
    50201b18:	8082                	ret

0000000050201b1a <sd_write>:
    50201b1a:	1141                	addi	sp,sp,-16
    50201b1c:	1502                	slli	a0,a0,0x20
    50201b1e:	1582                	slli	a1,a1,0x20
    50201b20:	1602                	slli	a2,a2,0x20
    50201b22:	e406                	sd	ra,8(sp)
    50201b24:	9101                	srli	a0,a0,0x20
    50201b26:	9181                	srli	a1,a1,0x20
    50201b28:	9201                	srli	a2,a2,0x20
    50201b2a:	50150337          	lui	t1,0x50150
    50201b2e:	48a9                	li	a7,10
    50201b30:	4801                	li	a6,0
    50201b32:	4781                	li	a5,0
    50201b34:	4701                	li	a4,0
    50201b36:	4681                	li	a3,0
    50201b38:	9302                	jalr	t1
    50201b3a:	60a2                	ld	ra,8(sp)
    50201b3c:	2501                	sext.w	a0,a0
    50201b3e:	0141                	addi	sp,sp,16
    50201b40:	8082                	ret

0000000050201b42 <load_task_img>:
    50201b42:	7179                	addi	sp,sp,-48
    50201b44:	ec26                	sd	s1,24(sp)
    50201b46:	00001497          	auipc	s1,0x1
    50201b4a:	8fa48493          	addi	s1,s1,-1798 # 50202440 <tasks>
    50201b4e:	f022                	sd	s0,32(sp)
    50201b50:	e84a                	sd	s2,16(sp)
    50201b52:	e44e                	sd	s3,8(sp)
    50201b54:	f406                	sd	ra,40(sp)
    50201b56:	892a                	mv	s2,a0
    50201b58:	89a6                	mv	s3,s1
    50201b5a:	4401                	li	s0,0
    50201b5c:	85ca                	mv	a1,s2
    50201b5e:	854e                	mv	a0,s3
    50201b60:	152000ef          	jal	50201cb2 <strcmp>
    50201b64:	47c1                	li	a5,16
    50201b66:	cd05                	beqz	a0,50201b9e <load_task_img+0x5c>
    50201b68:	2405                	addiw	s0,s0,1
    50201b6a:	02898993          	addi	s3,s3,40
    50201b6e:	fef417e3          	bne	s0,a5,50201b5c <load_task_img+0x1a>
    50201b72:	520007b7          	lui	a5,0x52000
    50201b76:	f0078793          	addi	a5,a5,-256 # 51ffff00 <__BSS_END__+0x1dfd408>
    50201b7a:	639c                	ld	a5,0(a5)
    50201b7c:	4701                	li	a4,0
    50201b7e:	4681                	li	a3,0
    50201b80:	4601                	li	a2,0
    50201b82:	4581                	li	a1,0
    50201b84:	00000517          	auipc	a0,0x0
    50201b88:	48450513          	addi	a0,a0,1156 # 50202008 <strcat+0x28a>
    50201b8c:	9782                	jalr	a5
    50201b8e:	4501                	li	a0,0
    50201b90:	70a2                	ld	ra,40(sp)
    50201b92:	7402                	ld	s0,32(sp)
    50201b94:	64e2                	ld	s1,24(sp)
    50201b96:	6942                	ld	s2,16(sp)
    50201b98:	69a2                	ld	s3,8(sp)
    50201b9a:	6145                	addi	sp,sp,48
    50201b9c:	8082                	ret
    50201b9e:	52000937          	lui	s2,0x52000
    50201ba2:	f0093783          	ld	a5,-256(s2) # 51ffff00 <__BSS_END__+0x1dfd408>
    50201ba6:	4701                	li	a4,0
    50201ba8:	4681                	li	a3,0
    50201baa:	4601                	li	a2,0
    50201bac:	4581                	li	a1,0
    50201bae:	00000517          	auipc	a0,0x0
    50201bb2:	42a50513          	addi	a0,a0,1066 # 50201fd8 <strcat+0x25a>
    50201bb6:	9782                	jalr	a5
    50201bb8:	f0093783          	ld	a5,-256(s2)
    50201bbc:	4701                	li	a4,0
    50201bbe:	4681                	li	a3,0
    50201bc0:	4601                	li	a2,0
    50201bc2:	4581                	li	a1,0
    50201bc4:	854e                	mv	a0,s3
    50201bc6:	9782                	jalr	a5
    50201bc8:	f0093783          	ld	a5,-256(s2)
    50201bcc:	4701                	li	a4,0
    50201bce:	4601                	li	a2,0
    50201bd0:	4581                	li	a1,0
    50201bd2:	4681                	li	a3,0
    50201bd4:	00000517          	auipc	a0,0x0
    50201bd8:	26c50513          	addi	a0,a0,620 # 50201e40 <strcat+0xc2>
    50201bdc:	9782                	jalr	a5
    50201bde:	00241793          	slli	a5,s0,0x2
    50201be2:	97a2                	add	a5,a5,s0
    50201be4:	078e                	slli	a5,a5,0x3
    50201be6:	94be                	add	s1,s1,a5
    50201be8:	5090                	lw	a2,32(s1)
    50201bea:	50cc                	lw	a1,36(s1)
    50201bec:	520007b7          	lui	a5,0x52000
    50201bf0:	41f6571b          	sraiw	a4,a2,0x1f
    50201bf4:	0177571b          	srliw	a4,a4,0x17
    50201bf8:	9e39                	addw	a2,a2,a4
    50201bfa:	0442                	slli	s0,s0,0x10
    50201bfc:	9c3d                	addw	s0,s0,a5
    50201bfe:	1ff67793          	andi	a5,a2,511
    50201c02:	1ff5859b          	addiw	a1,a1,511
    50201c06:	40e784bb          	subw	s1,a5,a4
    50201c0a:	9da5                	addw	a1,a1,s1
    50201c0c:	0095d59b          	srliw	a1,a1,0x9
    50201c10:	8625                	srai	a2,a2,0x9
    50201c12:	8522                	mv	a0,s0
    50201c14:	f0090913          	addi	s2,s2,-256
    50201c18:	edbff0ef          	jal	50201af2 <sd_read>
    50201c1c:	00054e63          	bltz	a0,50201c38 <load_task_img+0xf6>
    50201c20:	02049793          	slli	a5,s1,0x20
    50201c24:	9381                	srli	a5,a5,0x20
    50201c26:	70a2                	ld	ra,40(sp)
    50201c28:	00f40533          	add	a0,s0,a5
    50201c2c:	7402                	ld	s0,32(sp)
    50201c2e:	64e2                	ld	s1,24(sp)
    50201c30:	6942                	ld	s2,16(sp)
    50201c32:	69a2                	ld	s3,8(sp)
    50201c34:	6145                	addi	sp,sp,48
    50201c36:	8082                	ret
    50201c38:	00093783          	ld	a5,0(s2)
    50201c3c:	4701                	li	a4,0
    50201c3e:	4681                	li	a3,0
    50201c40:	4601                	li	a2,0
    50201c42:	4581                	li	a1,0
    50201c44:	00000517          	auipc	a0,0x0
    50201c48:	3ac50513          	addi	a0,a0,940 # 50201ff0 <strcat+0x272>
    50201c4c:	9782                	jalr	a5
    50201c4e:	4501                	li	a0,0
    50201c50:	b781                	j	50201b90 <load_task_img+0x4e>

0000000050201c52 <memcpy>:
    50201c52:	ce01                	beqz	a2,50201c6a <memcpy+0x18>
    50201c54:	1602                	slli	a2,a2,0x20
    50201c56:	9201                	srli	a2,a2,0x20
    50201c58:	962a                	add	a2,a2,a0
    50201c5a:	0005c783          	lbu	a5,0(a1)
    50201c5e:	0505                	addi	a0,a0,1
    50201c60:	0585                	addi	a1,a1,1
    50201c62:	fef50fa3          	sb	a5,-1(a0)
    50201c66:	fec51ae3          	bne	a0,a2,50201c5a <memcpy+0x8>
    50201c6a:	8082                	ret

0000000050201c6c <memset>:
    50201c6c:	ca09                	beqz	a2,50201c7e <memset+0x12>
    50201c6e:	1602                	slli	a2,a2,0x20
    50201c70:	9201                	srli	a2,a2,0x20
    50201c72:	962a                	add	a2,a2,a0
    50201c74:	0505                	addi	a0,a0,1
    50201c76:	feb50fa3          	sb	a1,-1(a0)
    50201c7a:	fec51de3          	bne	a0,a2,50201c74 <memset+0x8>
    50201c7e:	8082                	ret

0000000050201c80 <bzero>:
    50201c80:	c989                	beqz	a1,50201c92 <bzero+0x12>
    50201c82:	1582                	slli	a1,a1,0x20
    50201c84:	9181                	srli	a1,a1,0x20
    50201c86:	95aa                	add	a1,a1,a0
    50201c88:	0505                	addi	a0,a0,1
    50201c8a:	fe050fa3          	sb	zero,-1(a0)
    50201c8e:	feb51de3          	bne	a0,a1,50201c88 <bzero+0x8>
    50201c92:	8082                	ret

0000000050201c94 <strlen>:
    50201c94:	00054783          	lbu	a5,0(a0)
    50201c98:	cb99                	beqz	a5,50201cae <strlen+0x1a>
    50201c9a:	00150793          	addi	a5,a0,1
    50201c9e:	86be                	mv	a3,a5
    50201ca0:	0007c703          	lbu	a4,0(a5) # 52000000 <__BSS_END__+0x1dfd508>
    50201ca4:	0785                	addi	a5,a5,1
    50201ca6:	ff65                	bnez	a4,50201c9e <strlen+0xa>
    50201ca8:	40a6853b          	subw	a0,a3,a0
    50201cac:	8082                	ret
    50201cae:	4501                	li	a0,0
    50201cb0:	8082                	ret

0000000050201cb2 <strcmp>:
    50201cb2:	00054703          	lbu	a4,0(a0)
    50201cb6:	eb01                	bnez	a4,50201cc6 <strcmp+0x14>
    50201cb8:	a025                	j	50201ce0 <strcmp+0x2e>
    50201cba:	00e79b63          	bne	a5,a4,50201cd0 <strcmp+0x1e>
    50201cbe:	00054703          	lbu	a4,0(a0)
    50201cc2:	cb11                	beqz	a4,50201cd6 <strcmp+0x24>
    50201cc4:	0585                	addi	a1,a1,1
    50201cc6:	0005c783          	lbu	a5,0(a1)
    50201cca:	0505                	addi	a0,a0,1
    50201ccc:	f7fd                	bnez	a5,50201cba <strcmp+0x8>
    50201cce:	2701                	sext.w	a4,a4
    50201cd0:	40f7053b          	subw	a0,a4,a5
    50201cd4:	8082                	ret
    50201cd6:	0015c783          	lbu	a5,1(a1)
    50201cda:	40f7053b          	subw	a0,a4,a5
    50201cde:	8082                	ret
    50201ce0:	0005c783          	lbu	a5,0(a1)
    50201ce4:	b7f5                	j	50201cd0 <strcmp+0x1e>

0000000050201ce6 <strncmp>:
    50201ce6:	c21d                	beqz	a2,50201d0c <strncmp+0x26>
    50201ce8:	1602                	slli	a2,a2,0x20
    50201cea:	9201                	srli	a2,a2,0x20
    50201cec:	962a                	add	a2,a2,a0
    50201cee:	a031                	j	50201cfa <strncmp+0x14>
    50201cf0:	0585                	addi	a1,a1,1
    50201cf2:	00e79f63          	bne	a5,a4,50201d10 <strncmp+0x2a>
    50201cf6:	00c50b63          	beq	a0,a2,50201d0c <strncmp+0x26>
    50201cfa:	00054783          	lbu	a5,0(a0)
    50201cfe:	0005c703          	lbu	a4,0(a1)
    50201d02:	0505                	addi	a0,a0,1
    50201d04:	f7f5                	bnez	a5,50201cf0 <strncmp+0xa>
    50201d06:	4501                	li	a0,0
    50201d08:	9d19                	subw	a0,a0,a4
    50201d0a:	8082                	ret
    50201d0c:	4501                	li	a0,0
    50201d0e:	8082                	ret
    50201d10:	0007851b          	sext.w	a0,a5
    50201d14:	9d19                	subw	a0,a0,a4
    50201d16:	8082                	ret

0000000050201d18 <strcpy>:
    50201d18:	0005c783          	lbu	a5,0(a1)
    50201d1c:	872a                	mv	a4,a0
    50201d1e:	cb81                	beqz	a5,50201d2e <strcpy+0x16>
    50201d20:	0585                	addi	a1,a1,1
    50201d22:	00f70023          	sb	a5,0(a4)
    50201d26:	0005c783          	lbu	a5,0(a1)
    50201d2a:	0705                	addi	a4,a4,1
    50201d2c:	fbf5                	bnez	a5,50201d20 <strcpy+0x8>
    50201d2e:	00070023          	sb	zero,0(a4)
    50201d32:	8082                	ret

0000000050201d34 <strncpy>:
    50201d34:	0005c683          	lbu	a3,0(a1)
    50201d38:	88b2                	mv	a7,a2
    50201d3a:	87aa                	mv	a5,a0
    50201d3c:	c685                	beqz	a3,50201d64 <strncpy+0x30>
    50201d3e:	fff6081b          	addiw	a6,a2,-1
    50201d42:	0105083b          	addw	a6,a0,a6
    50201d46:	9e29                	addw	a2,a2,a0
    50201d48:	a039                	j	50201d56 <strncpy+0x22>
    50201d4a:	00d78023          	sb	a3,0(a5)
    50201d4e:	0005c683          	lbu	a3,0(a1)
    50201d52:	0785                	addi	a5,a5,1
    50201d54:	ca81                	beqz	a3,50201d64 <strncpy+0x30>
    50201d56:	40f6073b          	subw	a4,a2,a5
    50201d5a:	0585                	addi	a1,a1,1
    50201d5c:	40f808bb          	subw	a7,a6,a5
    50201d60:	fee045e3          	bgtz	a4,50201d4a <strncpy+0x16>
    50201d64:	02089713          	slli	a4,a7,0x20
    50201d68:	9301                	srli	a4,a4,0x20
    50201d6a:	973e                	add	a4,a4,a5
    50201d6c:	01105863          	blez	a7,50201d7c <strncpy+0x48>
    50201d70:	0785                	addi	a5,a5,1
    50201d72:	fe078fa3          	sb	zero,-1(a5)
    50201d76:	fef71de3          	bne	a4,a5,50201d70 <strncpy+0x3c>
    50201d7a:	8082                	ret
    50201d7c:	8082                	ret

0000000050201d7e <strcat>:
    50201d7e:	00054783          	lbu	a5,0(a0)
    50201d82:	c39d                	beqz	a5,50201da8 <strcat+0x2a>
    50201d84:	87aa                	mv	a5,a0
    50201d86:	0017c703          	lbu	a4,1(a5)
    50201d8a:	0785                	addi	a5,a5,1
    50201d8c:	ff6d                	bnez	a4,50201d86 <strcat+0x8>
    50201d8e:	0005c703          	lbu	a4,0(a1)
    50201d92:	cb01                	beqz	a4,50201da2 <strcat+0x24>
    50201d94:	0785                	addi	a5,a5,1
    50201d96:	0585                	addi	a1,a1,1
    50201d98:	fee78fa3          	sb	a4,-1(a5)
    50201d9c:	0005c703          	lbu	a4,0(a1)
    50201da0:	fb75                	bnez	a4,50201d94 <strcat+0x16>
    50201da2:	00078023          	sb	zero,0(a5)
    50201da6:	8082                	ret
    50201da8:	87aa                	mv	a5,a0
    50201daa:	bfcd                	j	50201d9c <strcat+0x1e>
