
build/main:     file format elf64-littleriscv


Disassembly of section .text:

0000000050201000 <_start>:
    50201000:	10401073          	csrw	sie,zero
    50201004:	14401073          	csrw	sip,zero
    50201008:	00003297          	auipc	t0,0x3
    5020100c:	8a428293          	addi	t0,t0,-1884 # 502038ac <__bss_start>
    50201010:	00005317          	auipc	t1,0x5
    50201014:	66030313          	addi	t1,t1,1632 # 50206670 <__BSS_END__>

0000000050201018 <do_clear>:
    50201018:	0002a023          	sw	zero,0(t0)
    5020101c:	0291                	addi	t0,t0,4
    5020101e:	fe62ede3          	bltu	t0,t1,50201018 <do_clear>
    50201022:	50500137          	lui	sp,0x50500
    50201026:	00c0006f          	j	50201032 <main>

000000005020102a <loop>:
    5020102a:	10500073          	wfi
    5020102e:	bff5                	j	5020102a <loop>
    50201030:	0001                	nop

0000000050201032 <main>:
    50201032:	7131                	addi	sp,sp,-192
    50201034:	52000337          	lui	t1,0x52000
    50201038:	fd06                	sd	ra,184(sp)
    5020103a:	f922                	sd	s0,176(sp)
    5020103c:	f526                	sd	s1,168(sp)
    5020103e:	f14a                	sd	s2,160(sp)
    50201040:	ed4e                	sd	s3,152(sp)
    50201042:	e952                	sd	s4,144(sp)
    50201044:	e556                	sd	s5,136(sp)
    50201046:	e15a                	sd	s6,128(sp)
    50201048:	fcde                	sd	s7,120(sp)
    5020104a:	f8e2                	sd	s8,112(sp)
    5020104c:	f4e6                	sd	s9,104(sp)
    5020104e:	f0ea                	sd	s10,96(sp)
    50201050:	ecee                	sd	s11,88(sp)
    50201052:	00b507bb          	addw	a5,a0,a1
    50201056:	00000f17          	auipc	t5,0x0
    5020105a:	4c4f0f13          	addi	t5,t5,1220 # 5020151a <port_write>
    5020105e:	f1e33023          	sd	t5,-256(t1) # 51ffff00 <__BSS_END__+0x1df9890>
    50201062:	84ae                	mv	s1,a1
    50201064:	00000f17          	auipc	t5,0x0
    50201068:	4a2f0f13          	addi	t5,t5,1186 # 50201506 <port_write_ch>
    5020106c:	41f7d59b          	sraiw	a1,a5,0x1f
    50201070:	f1e33423          	sd	t5,-248(t1)
    50201074:	41f5541b          	sraiw	s0,a0,0x1f
    50201078:	00000f17          	auipc	t5,0x0
    5020107c:	4b6f0f13          	addi	t5,t5,1206 # 5020152e <port_read_ch>
    50201080:	0175d59b          	srliw	a1,a1,0x17
    50201084:	f1e33823          	sd	t5,-240(t1)
    50201088:	9dbd                	addw	a1,a1,a5
    5020108a:	00000f17          	auipc	t5,0x0
    5020108e:	4c6f0f13          	addi	t5,t5,1222 # 50201550 <sd_read>
    50201092:	1ff7f793          	andi	a5,a5,511
    50201096:	0174541b          	srliw	s0,s0,0x17
    5020109a:	00f037b3          	snez	a5,a5
    5020109e:	f1e33c23          	sd	t5,-232(t1)
    502010a2:	9c29                	addw	s0,s0,a0
    502010a4:	00000f17          	auipc	t5,0x0
    502010a8:	4d4f0f13          	addi	t5,t5,1236 # 50201578 <sd_write>
    502010ac:	4095d59b          	sraiw	a1,a1,0x9
    502010b0:	9dbd                	addw	a1,a1,a5
    502010b2:	f3e33023          	sd	t5,-224(t1)
    502010b6:	4094541b          	sraiw	s0,s0,0x9
    502010ba:	00000f17          	auipc	t5,0x0
    502010be:	512f0f13          	addi	t5,t5,1298 # 502015cc <qemu_logging>
    502010c2:	f3e33423          	sd	t5,-216(t1)
    502010c6:	9d81                	subw	a1,a1,s0
    502010c8:	00000f17          	auipc	t5,0x0
    502010cc:	4d8f0f13          	addi	t5,t5,1240 # 502015a0 <set_timer>
    502010d0:	f3e33823          	sd	t5,-208(t1)
    502010d4:	00001897          	auipc	a7,0x1
    502010d8:	62a88893          	addi	a7,a7,1578 # 502026fe <printk>
    502010dc:	00000f17          	auipc	t5,0x0
    502010e0:	4d8f0f13          	addi	t5,t5,1240 # 502015b4 <read_fdt>
    502010e4:	02041613          	slli	a2,s0,0x20
    502010e8:	1582                	slli	a1,a1,0x20
    502010ea:	00000a97          	auipc	s5,0x0
    502010ee:	55aa8a93          	addi	s5,s5,1370 # 50201644 <screen_move_cursor>
    502010f2:	00000c17          	auipc	s8,0x0
    502010f6:	596c0c13          	addi	s8,s8,1430 # 50201688 <screen_write>
    502010fa:	00000c97          	auipc	s9,0x0
    502010fe:	5bcc8c93          	addi	s9,s9,1468 # 502016b6 <screen_reflush>
    50201102:	00001b97          	auipc	s7,0x1
    50201106:	be8b8b93          	addi	s7,s7,-1048 # 50201cea <do_scheduler>
    5020110a:	00001a17          	auipc	s4,0x1
    5020110e:	aa2a0a13          	addi	s4,s4,-1374 # 50201bac <do_mutex_lock_init>
    50201112:	00001b17          	auipc	s6,0x1
    50201116:	ae8b0b13          	addi	s6,s6,-1304 # 50201bfa <do_mutex_lock_acquire>
    5020111a:	00001997          	auipc	s3,0x1
    5020111e:	b4e98993          	addi	s3,s3,-1202 # 50201c68 <do_mutex_lock_release>
    50201122:	f5133c23          	sd	a7,-168(t1)
    50201126:	892a                	mv	s2,a0
    50201128:	f3e33c23          	sd	t5,-200(t1)
    5020112c:	f5533023          	sd	s5,-192(t1)
    50201130:	f5833423          	sd	s8,-184(t1)
    50201134:	f5933823          	sd	s9,-176(t1)
    50201138:	f7733023          	sd	s7,-160(t1)
    5020113c:	f7433423          	sd	s4,-152(t1)
    50201140:	f7633823          	sd	s6,-144(t1)
    50201144:	f7333c23          	sd	s3,-136(t1)
    50201148:	4701                	li	a4,0
    5020114a:	4681                	li	a3,0
    5020114c:	9181                	srli	a1,a1,0x20
    5020114e:	9201                	srli	a2,a2,0x20
    50201150:	52300537          	lui	a0,0x52300
    50201154:	3fc000ef          	jal	50201550 <sd_read>
    50201158:	523005b7          	lui	a1,0x52300
    5020115c:	012585bb          	addw	a1,a1,s2
    50201160:	0094141b          	slliw	s0,s0,0x9
    50201164:	9d81                	subw	a1,a1,s0
    50201166:	8626                	mv	a2,s1
    50201168:	00002517          	auipc	a0,0x2
    5020116c:	76850513          	addi	a0,a0,1896 # 502038d0 <tasks>
    50201170:	612010ef          	jal	50202782 <memcpy>
    50201174:	00002717          	auipc	a4,0x2
    50201178:	b4c70713          	addi	a4,a4,-1204 # 50202cc0 <strcat+0x412>
    5020117c:	630c                	ld	a1,0(a4)
    5020117e:	00002697          	auipc	a3,0x2
    50201182:	68268693          	addi	a3,a3,1666 # 50203800 <pid0_pcb>
    50201186:	629c                	ld	a5,0(a3)
    50201188:	6710                	ld	a2,8(a4)
    5020118a:	01073303          	ld	t1,16(a4)
    5020118e:	01873883          	ld	a7,24(a4)
    50201192:	02073803          	ld	a6,32(a4)
    50201196:	7708                	ld	a0,40(a4)
    50201198:	f02e                	sd	a1,32(sp)
    5020119a:	00002717          	auipc	a4,0x2
    5020119e:	66073f23          	sd	zero,1662(a4) # 50203818 <pid0_pcb+0x18>
    502011a2:	00002717          	auipc	a4,0x2
    502011a6:	66073723          	sd	zero,1646(a4) # 50203810 <pid0_pcb+0x10>
    502011aa:	668c                	ld	a1,8(a3)
    502011ac:	f432                	sd	a2,40(sp)
    502011ae:	e7078713          	addi	a4,a5,-400
    502011b2:	4605                	li	a2,1
    502011b4:	d2d0                	sw	a2,36(a3)
    502011b6:	f81a                	sd	t1,48(sp)
    502011b8:	fc46                	sd	a7,56(sp)
    502011ba:	e0c2                	sd	a6,64(sp)
    502011bc:	e4aa                	sd	a0,72(sp)
    502011be:	00000917          	auipc	s2,0x0
    502011c2:	24a90913          	addi	s2,s2,586 # 50201408 <ret_from_exception>
    502011c6:	02000613          	li	a2,32
    502011ca:	e298                	sd	a4,0(a3)
    502011cc:	f0d7b023          	sd	a3,-256(a5)
    502011d0:	eeb7b823          	sd	a1,-272(a5)
    502011d4:	fec7b023          	sd	a2,-32(a5)
    502011d8:	ef27b423          	sd	s2,-280(a5)
    502011dc:	ff27b423          	sd	s2,-24(a5)
    502011e0:	e727b823          	sd	s2,-400(a5)
    502011e4:	e718                	sd	a4,8(a4)
    502011e6:	00c10433          	add	s0,sp,a2
    502011ea:	4481                	li	s1,0
    502011ec:	00005d17          	auipc	s10,0x5
    502011f0:	a84d0d13          	addi	s10,s10,-1404 # 50205c70 <pcb>
    502011f4:	00005d97          	auipc	s11,0x5
    502011f8:	a84d8d93          	addi	s11,s11,-1404 # 50205c78 <pcb+0x8>
    502011fc:	8522                	mv	a0,s0
    502011fe:	7b4000ef          	jal	502019b2 <load_task_img>
    50201202:	10051a63          	bnez	a0,50201316 <main+0x2e4>
    50201206:	0441                	addi	s0,s0,16
    50201208:	089c                	addi	a5,sp,80
    5020120a:	fe8799e3          	bne	a5,s0,502011fc <main+0x1ca>
    5020120e:	00001517          	auipc	a0,0x1
    50201212:	6d250513          	addi	a0,a0,1746 # 502028e0 <strcat+0x32>
    50201216:	00002217          	auipc	tp,0x2
    5020121a:	5ea20213          	addi	tp,tp,1514 # 50203800 <pid0_pcb>
    5020121e:	4e0010ef          	jal	502026fe <printk>
    50201222:	520007b7          	lui	a5,0x52000
    50201226:	f3878793          	addi	a5,a5,-200 # 51ffff38 <__BSS_END__+0x1df98c8>
    5020122a:	639c                	ld	a5,0(a5)
    5020122c:	4581                	li	a1,0
    5020122e:	4701                	li	a4,0
    50201230:	4681                	li	a3,0
    50201232:	4601                	li	a2,0
    50201234:	4501                	li	a0,0
    50201236:	9782                	jalr	a5
    50201238:	00002797          	auipc	a5,0x2
    5020123c:	68a7b423          	sd	a0,1672(a5) # 502038c0 <time_base>
    50201240:	113000ef          	jal	50201b52 <init_locks>
    50201244:	00001517          	auipc	a0,0x1
    50201248:	6c450513          	addi	a0,a0,1732 # 50202908 <strcat+0x5a>
    5020124c:	4b2010ef          	jal	502026fe <printk>
    50201250:	70e000ef          	jal	5020195e <init_exception>
    50201254:	00001517          	auipc	a0,0x1
    50201258:	6ec50513          	addi	a0,a0,1772 # 50202940 <strcat+0x92>
    5020125c:	4a2010ef          	jal	502026fe <printk>
    50201260:	00001617          	auipc	a2,0x1
    50201264:	bb460613          	addi	a2,a2,-1100 # 50201e14 <do_sleep>
    50201268:	00001697          	auipc	a3,0x1
    5020126c:	e8868693          	addi	a3,a3,-376 # 502020f0 <get_time_base>
    50201270:	00001717          	auipc	a4,0x1
    50201274:	e5870713          	addi	a4,a4,-424 # 502020c8 <get_ticks>
    50201278:	00001797          	auipc	a5,0x1
    5020127c:	d7a78793          	addi	a5,a5,-646 # 50201ff2 <do_set_sche_workload>
    50201280:	00001517          	auipc	a0,0x1
    50201284:	70050513          	addi	a0,a0,1792 # 50202980 <strcat+0xd2>
    50201288:	00005597          	auipc	a1,0x5
    5020128c:	0ec5bc23          	sd	a2,248(a1) # 50206380 <syscall+0x10>
    50201290:	00005597          	auipc	a1,0x5
    50201294:	1175bc23          	sd	s7,280(a1) # 502063a8 <syscall+0x38>
    50201298:	00005617          	auipc	a2,0x5
    5020129c:	1cd63423          	sd	a3,456(a2) # 50206460 <syscall+0xf0>
    502012a0:	00005597          	auipc	a1,0x5
    502012a4:	1785b823          	sd	s8,368(a1) # 50206410 <syscall+0xa0>
    502012a8:	00005697          	auipc	a3,0x5
    502012ac:	1ce6b023          	sd	a4,448(a3) # 50206468 <syscall+0xf8>
    502012b0:	00005597          	auipc	a1,0x5
    502012b4:	1755b823          	sd	s5,368(a1) # 50206420 <syscall+0xb0>
    502012b8:	00005717          	auipc	a4,0x5
    502012bc:	20f73823          	sd	a5,528(a4) # 502064c8 <syscall+0x158>
    502012c0:	00005597          	auipc	a1,0x5
    502012c4:	1795b423          	sd	s9,360(a1) # 50206428 <syscall+0xb8>
    502012c8:	00005597          	auipc	a1,0x5
    502012cc:	1f45b423          	sd	s4,488(a1) # 502064b0 <syscall+0x140>
    502012d0:	00005597          	auipc	a1,0x5
    502012d4:	1f65b423          	sd	s6,488(a1) # 502064b8 <syscall+0x148>
    502012d8:	00005597          	auipc	a1,0x5
    502012dc:	1f35b423          	sd	s3,488(a1) # 502064c0 <syscall+0x150>
    502012e0:	41e010ef          	jal	502026fe <printk>
    502012e4:	4d8000ef          	jal	502017bc <init_screen>
    502012e8:	00001517          	auipc	a0,0x1
    502012ec:	6c850513          	addi	a0,a0,1736 # 502029b0 <strcat+0x102>
    502012f0:	40e010ef          	jal	502026fe <printk>
    502012f4:	5d5000ef          	jal	502020c8 <get_ticks>
    502012f8:	520007b7          	lui	a5,0x52000
    502012fc:	f3078793          	addi	a5,a5,-208 # 51ffff30 <__BSS_END__+0x1df98c0>
    50201300:	639c                	ld	a5,0(a5)
    50201302:	5dc50513          	addi	a0,a0,1500
    50201306:	4701                	li	a4,0
    50201308:	4681                	li	a3,0
    5020130a:	4601                	li	a2,0
    5020130c:	4581                	li	a1,0
    5020130e:	9782                	jalr	a5
    50201310:	1db000ef          	jal	50201cea <do_scheduler>
    50201314:	bff5                	j	50201310 <main+0x2de>
    50201316:	ec2a                	sd	a0,24(sp)
    50201318:	4505                	li	a0,1
    5020131a:	185000ef          	jal	50201c9e <allocKernelPage>
    5020131e:	06800613          	li	a2,104
    50201322:	02c48633          	mul	a2,s1,a2
    50201326:	6585                	lui	a1,0x1
    50201328:	00b50733          	add	a4,a0,a1
    5020132c:	4505                	li	a0,1
    5020132e:	2485                	addiw	s1,s1,1
    50201330:	00cd06b3          	add	a3,s10,a2
    50201334:	e298                	sd	a4,0(a3)
    50201336:	e832                	sd	a2,16(sp)
    50201338:	e436                	sd	a3,8(sp)
    5020133a:	18b000ef          	jal	50201cc4 <allocUserPage>
    5020133e:	66a2                	ld	a3,8(sp)
    50201340:	6642                	ld	a2,16(sp)
    50201342:	6585                	lui	a1,0x1
    50201344:	95aa                	add	a1,a1,a0
    50201346:	4709                	li	a4,2
    50201348:	e68c                	sd	a1,8(a3)
    5020134a:	d2d8                	sw	a4,36(a3)
    5020134c:	d284                	sw	s1,32(a3)
    5020134e:	00cd8733          	add	a4,s11,a2
    50201352:	67e2                	ld	a5,24(sp)
    50201354:	02073023          	sd	zero,32(a4)
    50201358:	6298                	ld	a4,0(a3)
    5020135a:	0641                	addi	a2,a2,16
    5020135c:	00cd0533          	add	a0,s10,a2
    50201360:	02000613          	li	a2,32
    50201364:	eeb73823          	sd	a1,-272(a4)
    50201368:	eef73423          	sd	a5,-280(a4)
    5020136c:	fef73423          	sd	a5,-24(a4)
    50201370:	f0d73023          	sd	a3,-256(a4)
    50201374:	e7070793          	addi	a5,a4,-400
    50201378:	fec73023          	sd	a2,-32(a4)
    5020137c:	e29c                	sd	a5,0(a3)
    5020137e:	e7273823          	sd	s2,-400(a4)
    50201382:	e79c                	sd	a5,8(a5)
    50201384:	00002597          	auipc	a1,0x2
    50201388:	4e458593          	addi	a1,a1,1252 # 50203868 <ready_queue>
    5020138c:	379000ef          	jal	50201f04 <add_node_to_q>
    50201390:	47c1                	li	a5,16
    50201392:	e697dae3          	bge	a5,s1,50201206 <main+0x1d4>
    50201396:	bda5                	j	5020120e <main+0x1dc>

0000000050201398 <enable_preempt>:
    50201398:	fff04293          	not	t0,zero
    5020139c:	1042a073          	csrs	sie,t0
    502013a0:	8082                	ret
    502013a2:	0001                	nop

00000000502013a4 <disable_preempt>:
    502013a4:	10401073          	csrw	sie,zero
    502013a8:	8082                	ret
    502013aa:	0001                	nop

00000000502013ac <enable_interrupt>:
    502013ac:	4289                	li	t0,2
    502013ae:	1002a073          	csrs	sstatus,t0
    502013b2:	8082                	ret

00000000502013b4 <disable_interrupt>:
    502013b4:	4289                	li	t0,2
    502013b6:	1002b073          	csrc	sstatus,t0
    502013ba:	8082                	ret

00000000502013bc <switch_to>:
    502013bc:	7159                	addi	sp,sp,-112
    502013be:	00253023          	sd	sp,0(a0)
    502013c2:	e40a                	sd	sp,8(sp)
    502013c4:	e006                	sd	ra,0(sp)
    502013c6:	e822                	sd	s0,16(sp)
    502013c8:	ec26                	sd	s1,24(sp)
    502013ca:	f04a                	sd	s2,32(sp)
    502013cc:	f44e                	sd	s3,40(sp)
    502013ce:	f852                	sd	s4,48(sp)
    502013d0:	fc56                	sd	s5,56(sp)
    502013d2:	e0da                	sd	s6,64(sp)
    502013d4:	e4de                	sd	s7,72(sp)
    502013d6:	e8e2                	sd	s8,80(sp)
    502013d8:	ece6                	sd	s9,88(sp)
    502013da:	f0ea                	sd	s10,96(sp)
    502013dc:	f4ee                	sd	s11,104(sp)
    502013de:	822e                	mv	tp,a1
    502013e0:	0005b103          	ld	sp,0(a1)
    502013e4:	6082                	ld	ra,0(sp)
    502013e6:	6122                	ld	sp,8(sp)
    502013e8:	6442                	ld	s0,16(sp)
    502013ea:	64e2                	ld	s1,24(sp)
    502013ec:	7902                	ld	s2,32(sp)
    502013ee:	79a2                	ld	s3,40(sp)
    502013f0:	7a42                	ld	s4,48(sp)
    502013f2:	7ae2                	ld	s5,56(sp)
    502013f4:	6b06                	ld	s6,64(sp)
    502013f6:	6ba6                	ld	s7,72(sp)
    502013f8:	6c46                	ld	s8,80(sp)
    502013fa:	6ce6                	ld	s9,88(sp)
    502013fc:	7d06                	ld	s10,96(sp)
    502013fe:	7da6                	ld	s11,104(sp)
    50201400:	6165                	addi	sp,sp,112
    50201402:	0025b023          	sd	sp,0(a1)
    50201406:	8082                	ret

0000000050201408 <ret_from_exception>:
    50201408:	00013003          	ld	zero,0(sp) # 50500000 <__BSS_END__+0x2f9990>
    5020140c:	60a2                	ld	ra,8(sp)
    5020140e:	61e2                	ld	gp,24(sp)
    50201410:	7202                	ld	tp,32(sp)
    50201412:	72a2                	ld	t0,40(sp)
    50201414:	7342                	ld	t1,48(sp)
    50201416:	73e2                	ld	t2,56(sp)
    50201418:	6406                	ld	s0,64(sp)
    5020141a:	64a6                	ld	s1,72(sp)
    5020141c:	6546                	ld	a0,80(sp)
    5020141e:	65e6                	ld	a1,88(sp)
    50201420:	7606                	ld	a2,96(sp)
    50201422:	76a6                	ld	a3,104(sp)
    50201424:	7746                	ld	a4,112(sp)
    50201426:	77e6                	ld	a5,120(sp)
    50201428:	680a                	ld	a6,128(sp)
    5020142a:	68aa                	ld	a7,136(sp)
    5020142c:	694a                	ld	s2,144(sp)
    5020142e:	69ea                	ld	s3,152(sp)
    50201430:	7a0a                	ld	s4,160(sp)
    50201432:	7aaa                	ld	s5,168(sp)
    50201434:	7b4a                	ld	s6,176(sp)
    50201436:	7bea                	ld	s7,184(sp)
    50201438:	6c0e                	ld	s8,192(sp)
    5020143a:	6cae                	ld	s9,200(sp)
    5020143c:	6d4e                	ld	s10,208(sp)
    5020143e:	6dee                	ld	s11,216(sp)
    50201440:	6e12                	ld	t3,256(sp)
    50201442:	6eb2                	ld	t4,264(sp)
    50201444:	6f52                	ld	t5,272(sp)
    50201446:	6ff2                	ld	t6,280(sp)
    50201448:	100e1073          	csrw	sstatus,t3
    5020144c:	141e9073          	csrw	sepc,t4
    50201450:	142f9073          	csrw	scause,t6
    50201454:	7e0e                	ld	t3,224(sp)
    50201456:	7eae                	ld	t4,232(sp)
    50201458:	7f4e                	ld	t5,240(sp)
    5020145a:	7fee                	ld	t6,248(sp)
    5020145c:	6115                	addi	sp,sp,288
    5020145e:	00223023          	sd	sp,0(tp) # 0 <_start-0x50201000>
    50201462:	00823103          	ld	sp,8(tp) # 8 <_start-0x50200ff8>
    50201466:	10200073          	sret
    5020146a:	0001                	nop

000000005020146c <exception_handler_entry>:
    5020146c:	00223423          	sd	sp,8(tp) # 8 <_start-0x50200ff8>
    50201470:	00023103          	ld	sp,0(tp) # 0 <_start-0x50201000>
    50201474:	712d                	addi	sp,sp,-288
    50201476:	e002                	sd	zero,0(sp)
    50201478:	e406                	sd	ra,8(sp)
    5020147a:	ec0e                	sd	gp,24(sp)
    5020147c:	f012                	sd	tp,32(sp)
    5020147e:	f416                	sd	t0,40(sp)
    50201480:	f81a                	sd	t1,48(sp)
    50201482:	fc1e                	sd	t2,56(sp)
    50201484:	00823283          	ld	t0,8(tp) # 8 <_start-0x50200ff8>
    50201488:	e816                	sd	t0,16(sp)
    5020148a:	e0a2                	sd	s0,64(sp)
    5020148c:	e4a6                	sd	s1,72(sp)
    5020148e:	e8aa                	sd	a0,80(sp)
    50201490:	ecae                	sd	a1,88(sp)
    50201492:	f0b2                	sd	a2,96(sp)
    50201494:	f4b6                	sd	a3,104(sp)
    50201496:	f8ba                	sd	a4,112(sp)
    50201498:	fcbe                	sd	a5,120(sp)
    5020149a:	e142                	sd	a6,128(sp)
    5020149c:	e546                	sd	a7,136(sp)
    5020149e:	e94a                	sd	s2,144(sp)
    502014a0:	ed4e                	sd	s3,152(sp)
    502014a2:	f152                	sd	s4,160(sp)
    502014a4:	f556                	sd	s5,168(sp)
    502014a6:	f95a                	sd	s6,176(sp)
    502014a8:	fd5e                	sd	s7,184(sp)
    502014aa:	e1e2                	sd	s8,192(sp)
    502014ac:	e5e6                	sd	s9,200(sp)
    502014ae:	e9ea                	sd	s10,208(sp)
    502014b0:	edee                	sd	s11,216(sp)
    502014b2:	f1f2                	sd	t3,224(sp)
    502014b4:	f5f6                	sd	t4,232(sp)
    502014b6:	f9fa                	sd	t5,240(sp)
    502014b8:	fdfe                	sd	t6,248(sp)
    502014ba:	000462b7          	lui	t0,0x46
    502014be:	100022f3          	csrr	t0,sstatus
    502014c2:	14102373          	csrr	t1,sepc
    502014c6:	14202e73          	csrr	t3,scause
    502014ca:	e216                	sd	t0,256(sp)
    502014cc:	e61a                	sd	t1,264(sp)
    502014ce:	ea1e                	sd	t2,272(sp)
    502014d0:	ee72                	sd	t3,280(sp)
    502014d2:	850a                	mv	a0,sp
    502014d4:	143025f3          	csrr	a1,stval
    502014d8:	14202673          	csrr	a2,scause
    502014dc:	434000ef          	jal	50201910 <interrupt_helper>
    502014e0:	00000097          	auipc	ra,0x0
    502014e4:	f2808093          	addi	ra,ra,-216 # 50201408 <ret_from_exception>
    502014e8:	8082                	ret
    502014ea:	0001                	nop

00000000502014ec <setup_exception>:
    502014ec:	00000297          	auipc	t0,0x0
    502014f0:	f8028293          	addi	t0,t0,-128 # 5020146c <exception_handler_entry>
    502014f4:	10529073          	csrw	stvec,t0
    502014f8:	1161                	addi	sp,sp,-8
    502014fa:	e006                	sd	ra,0(sp)
    502014fc:	eb1ff0ef          	jal	502013ac <enable_interrupt>
    50201500:	6082                	ld	ra,0(sp)
    50201502:	0121                	addi	sp,sp,8
    50201504:	8082                	ret

0000000050201506 <port_write_ch>:
    50201506:	50150337          	lui	t1,0x50150
    5020150a:	4885                	li	a7,1
    5020150c:	4801                	li	a6,0
    5020150e:	4781                	li	a5,0
    50201510:	4701                	li	a4,0
    50201512:	4681                	li	a3,0
    50201514:	4601                	li	a2,0
    50201516:	4581                	li	a1,0
    50201518:	8302                	jr	t1

000000005020151a <port_write>:
    5020151a:	50150337          	lui	t1,0x50150
    5020151e:	48a5                	li	a7,9
    50201520:	4801                	li	a6,0
    50201522:	4781                	li	a5,0
    50201524:	4701                	li	a4,0
    50201526:	4681                	li	a3,0
    50201528:	4601                	li	a2,0
    5020152a:	4581                	li	a1,0
    5020152c:	8302                	jr	t1

000000005020152e <port_read_ch>:
    5020152e:	1141                	addi	sp,sp,-16
    50201530:	e406                	sd	ra,8(sp)
    50201532:	50150337          	lui	t1,0x50150
    50201536:	4889                	li	a7,2
    50201538:	4801                	li	a6,0
    5020153a:	4781                	li	a5,0
    5020153c:	4701                	li	a4,0
    5020153e:	4681                	li	a3,0
    50201540:	4601                	li	a2,0
    50201542:	4581                	li	a1,0
    50201544:	4501                	li	a0,0
    50201546:	9302                	jalr	t1
    50201548:	60a2                	ld	ra,8(sp)
    5020154a:	2501                	sext.w	a0,a0
    5020154c:	0141                	addi	sp,sp,16
    5020154e:	8082                	ret

0000000050201550 <sd_read>:
    50201550:	1141                	addi	sp,sp,-16
    50201552:	1502                	slli	a0,a0,0x20
    50201554:	1582                	slli	a1,a1,0x20
    50201556:	1602                	slli	a2,a2,0x20
    50201558:	e406                	sd	ra,8(sp)
    5020155a:	9101                	srli	a0,a0,0x20
    5020155c:	9181                	srli	a1,a1,0x20
    5020155e:	9201                	srli	a2,a2,0x20
    50201560:	50150337          	lui	t1,0x50150
    50201564:	48ad                	li	a7,11
    50201566:	4801                	li	a6,0
    50201568:	4781                	li	a5,0
    5020156a:	4701                	li	a4,0
    5020156c:	4681                	li	a3,0
    5020156e:	9302                	jalr	t1
    50201570:	60a2                	ld	ra,8(sp)
    50201572:	2501                	sext.w	a0,a0
    50201574:	0141                	addi	sp,sp,16
    50201576:	8082                	ret

0000000050201578 <sd_write>:
    50201578:	1141                	addi	sp,sp,-16
    5020157a:	1502                	slli	a0,a0,0x20
    5020157c:	1582                	slli	a1,a1,0x20
    5020157e:	1602                	slli	a2,a2,0x20
    50201580:	e406                	sd	ra,8(sp)
    50201582:	9101                	srli	a0,a0,0x20
    50201584:	9181                	srli	a1,a1,0x20
    50201586:	9201                	srli	a2,a2,0x20
    50201588:	50150337          	lui	t1,0x50150
    5020158c:	48a9                	li	a7,10
    5020158e:	4801                	li	a6,0
    50201590:	4781                	li	a5,0
    50201592:	4701                	li	a4,0
    50201594:	4681                	li	a3,0
    50201596:	9302                	jalr	t1
    50201598:	60a2                	ld	ra,8(sp)
    5020159a:	2501                	sext.w	a0,a0
    5020159c:	0141                	addi	sp,sp,16
    5020159e:	8082                	ret

00000000502015a0 <set_timer>:
    502015a0:	50150337          	lui	t1,0x50150
    502015a4:	4881                	li	a7,0
    502015a6:	4801                	li	a6,0
    502015a8:	4781                	li	a5,0
    502015aa:	4701                	li	a4,0
    502015ac:	4681                	li	a3,0
    502015ae:	4601                	li	a2,0
    502015b0:	4581                	li	a1,0
    502015b2:	8302                	jr	t1

00000000502015b4 <read_fdt>:
    502015b4:	1502                	slli	a0,a0,0x20
    502015b6:	9101                	srli	a0,a0,0x20
    502015b8:	50150337          	lui	t1,0x50150
    502015bc:	48b1                	li	a7,12
    502015be:	4801                	li	a6,0
    502015c0:	4781                	li	a5,0
    502015c2:	4701                	li	a4,0
    502015c4:	4681                	li	a3,0
    502015c6:	4601                	li	a2,0
    502015c8:	4581                	li	a1,0
    502015ca:	8302                	jr	t1

00000000502015cc <qemu_logging>:
    502015cc:	50150337          	lui	t1,0x50150
    502015d0:	48b9                	li	a7,14
    502015d2:	4801                	li	a6,0
    502015d4:	4781                	li	a5,0
    502015d6:	4701                	li	a4,0
    502015d8:	4681                	li	a3,0
    502015da:	4601                	li	a2,0
    502015dc:	4581                	li	a1,0
    502015de:	8302                	jr	t1

00000000502015e0 <screen_write_ch>:
    502015e0:	47a9                	li	a5,10
    502015e2:	04f50263          	beq	a0,a5,50201626 <screen_write_ch+0x46>
    502015e6:	ff850793          	addi	a5,a0,-8
    502015ea:	0005071b          	sext.w	a4,a0
    502015ee:	c7b9                	beqz	a5,5020163c <screen_write_ch+0x5c>
    502015f0:	f8170713          	addi	a4,a4,-127
    502015f4:	c721                	beqz	a4,5020163c <screen_write_ch+0x5c>
    502015f6:	02c22603          	lw	a2,44(tp) # 2c <_start-0x50200fd4>
    502015fa:	02822683          	lw	a3,40(tp) # 28 <_start-0x50200fd8>
    502015fe:	00003717          	auipc	a4,0x3
    50201602:	3f270713          	addi	a4,a4,1010 # 502049f0 <new_screen>
    50201606:	0026179b          	slliw	a5,a2,0x2
    5020160a:	9fb1                	addw	a5,a5,a2
    5020160c:	0047979b          	slliw	a5,a5,0x4
    50201610:	9fb5                	addw	a5,a5,a3
    50201612:	97ba                	add	a5,a5,a4
    50201614:	00a78023          	sb	a0,0(a5)
    50201618:	02822783          	lw	a5,40(tp) # 28 <_start-0x50200fd8>
    5020161c:	04f00713          	li	a4,79
    50201620:	2785                	addiw	a5,a5,1
    50201622:	00f75e63          	bge	a4,a5,5020163e <screen_write_ch+0x5e>
    50201626:	02c22783          	lw	a5,44(tp) # 2c <_start-0x50200fd4>
    5020162a:	02022423          	sw	zero,40(tp) # 28 <_start-0x50200fd8>
    5020162e:	03100713          	li	a4,49
    50201632:	00f74563          	blt	a4,a5,5020163c <screen_write_ch+0x5c>
    50201636:	2785                	addiw	a5,a5,1
    50201638:	02f22623          	sw	a5,44(tp) # 2c <_start-0x50200fd4>
    5020163c:	8082                	ret
    5020163e:	02f22423          	sw	a5,40(tp) # 28 <_start-0x50200fd8>
    50201642:	8082                	ret

0000000050201644 <screen_move_cursor>:
    50201644:	0005069b          	sext.w	a3,a0
    50201648:	00055363          	bgez	a0,5020164e <screen_move_cursor+0xa>
    5020164c:	4681                	li	a3,0
    5020164e:	04f00793          	li	a5,79
    50201652:	00d7d363          	bge	a5,a3,50201658 <screen_move_cursor+0x14>
    50201656:	86be                	mv	a3,a5
    50201658:	862e                	mv	a2,a1
    5020165a:	0005d363          	bgez	a1,50201660 <screen_move_cursor+0x1c>
    5020165e:	4601                	li	a2,0
    50201660:	0006079b          	sext.w	a5,a2
    50201664:	03100713          	li	a4,49
    50201668:	00f75363          	bge	a4,a5,5020166e <screen_move_cursor+0x2a>
    5020166c:	863a                	mv	a2,a4
    5020166e:	02d22423          	sw	a3,40(tp) # 28 <_start-0x50200fd8>
    50201672:	02c22623          	sw	a2,44(tp) # 2c <_start-0x50200fd4>
    50201676:	2685                	addiw	a3,a3,1
    50201678:	2605                	addiw	a2,a2,1
    5020167a:	45ed                	li	a1,27
    5020167c:	00001517          	auipc	a0,0x1
    50201680:	36450513          	addi	a0,a0,868 # 502029e0 <strcat+0x132>
    50201684:	0a60106f          	j	5020272a <printv>

0000000050201688 <screen_write>:
    50201688:	1101                	addi	sp,sp,-32
    5020168a:	e822                	sd	s0,16(sp)
    5020168c:	ec06                	sd	ra,24(sp)
    5020168e:	842a                	mv	s0,a0
    50201690:	134010ef          	jal	502027c4 <strlen>
    50201694:	00a05d63          	blez	a0,502016ae <screen_write+0x26>
    50201698:	e426                	sd	s1,8(sp)
    5020169a:	00a404b3          	add	s1,s0,a0
    5020169e:	00044503          	lbu	a0,0(s0)
    502016a2:	0405                	addi	s0,s0,1
    502016a4:	f3dff0ef          	jal	502015e0 <screen_write_ch>
    502016a8:	fe941be3          	bne	s0,s1,5020169e <screen_write+0x16>
    502016ac:	64a2                	ld	s1,8(sp)
    502016ae:	60e2                	ld	ra,24(sp)
    502016b0:	6442                	ld	s0,16(sp)
    502016b2:	6105                	addi	sp,sp,32
    502016b4:	8082                	ret

00000000502016b6 <screen_reflush>:
    502016b6:	715d                	addi	sp,sp,-80
    502016b8:	ec56                	sd	s5,24(sp)
    502016ba:	e85a                	sd	s6,16(sp)
    502016bc:	52000ab7          	lui	s5,0x52000
    502016c0:	00002b17          	auipc	s6,0x2
    502016c4:	390b0b13          	addi	s6,s6,912 # 50203a50 <old_screen>
    502016c8:	f84a                	sd	s2,48(sp)
    502016ca:	f44e                	sd	s3,40(sp)
    502016cc:	e45e                	sd	s7,8(sp)
    502016ce:	e062                	sd	s8,0(sp)
    502016d0:	e486                	sd	ra,72(sp)
    502016d2:	e0a2                	sd	s0,64(sp)
    502016d4:	fc26                	sd	s1,56(sp)
    502016d6:	f052                	sd	s4,32(sp)
    502016d8:	41600b3b          	negw	s6,s6
    502016dc:	f08a8a93          	addi	s5,s5,-248 # 51ffff08 <__BSS_END__+0x1df9898>
    502016e0:	00002997          	auipc	s3,0x2
    502016e4:	3c098993          	addi	s3,s3,960 # 50203aa0 <old_screen+0x50>
    502016e8:	00003b97          	auipc	s7,0x3
    502016ec:	308b8b93          	addi	s7,s7,776 # 502049f0 <new_screen>
    502016f0:	4901                	li	s2,0
    502016f2:	03200c13          	li	s8,50
    502016f6:	2905                	addiw	s2,s2,1
    502016f8:	fb098413          	addi	s0,s3,-80
    502016fc:	84de                	mv	s1,s7
    502016fe:	001b0a1b          	addiw	s4,s6,1
    50201702:	0004c703          	lbu	a4,0(s1)
    50201706:	00044783          	lbu	a5,0(s0)
    5020170a:	008a06bb          	addw	a3,s4,s0
    5020170e:	864a                	mv	a2,s2
    50201710:	45ed                	li	a1,27
    50201712:	00001517          	auipc	a0,0x1
    50201716:	2ce50513          	addi	a0,a0,718 # 502029e0 <strcat+0x132>
    5020171a:	02f70163          	beq	a4,a5,5020173c <screen_reflush+0x86>
    5020171e:	00c010ef          	jal	5020272a <printv>
    50201722:	000ab783          	ld	a5,0(s5)
    50201726:	0004c503          	lbu	a0,0(s1)
    5020172a:	4701                	li	a4,0
    5020172c:	4681                	li	a3,0
    5020172e:	4601                	li	a2,0
    50201730:	4581                	li	a1,0
    50201732:	9782                	jalr	a5
    50201734:	0004c783          	lbu	a5,0(s1)
    50201738:	00f40023          	sb	a5,0(s0)
    5020173c:	0405                	addi	s0,s0,1
    5020173e:	0485                	addi	s1,s1,1
    50201740:	fd3411e3          	bne	s0,s3,50201702 <screen_reflush+0x4c>
    50201744:	05040993          	addi	s3,s0,80
    50201748:	050b8b93          	addi	s7,s7,80
    5020174c:	fb0b0b1b          	addiw	s6,s6,-80
    50201750:	fb8913e3          	bne	s2,s8,502016f6 <screen_reflush+0x40>
    50201754:	6406                	ld	s0,64(sp)
    50201756:	60a6                	ld	ra,72(sp)
    50201758:	74e2                	ld	s1,56(sp)
    5020175a:	7942                	ld	s2,48(sp)
    5020175c:	79a2                	ld	s3,40(sp)
    5020175e:	7a02                	ld	s4,32(sp)
    50201760:	6ae2                	ld	s5,24(sp)
    50201762:	6b42                	ld	s6,16(sp)
    50201764:	6ba2                	ld	s7,8(sp)
    50201766:	6c02                	ld	s8,0(sp)
    50201768:	02822683          	lw	a3,40(tp) # 28 <_start-0x50200fd8>
    5020176c:	02c22603          	lw	a2,44(tp) # 2c <_start-0x50200fd4>
    50201770:	45ed                	li	a1,27
    50201772:	00001517          	auipc	a0,0x1
    50201776:	26e50513          	addi	a0,a0,622 # 502029e0 <strcat+0x132>
    5020177a:	6161                	addi	sp,sp,80
    5020177c:	7af0006f          	j	5020272a <printv>

0000000050201780 <screen_clear>:
    50201780:	00002697          	auipc	a3,0x2
    50201784:	1086b683          	ld	a3,264(a3) # 50203888 <__SDATA_BEGIN__>
    50201788:	00003617          	auipc	a2,0x3
    5020178c:	26860613          	addi	a2,a2,616 # 502049f0 <new_screen>
    50201790:	00003717          	auipc	a4,0x3
    50201794:	2b070713          	addi	a4,a4,688 # 50204a40 <new_screen+0x50>
    50201798:	00004597          	auipc	a1,0x4
    5020179c:	24858593          	addi	a1,a1,584 # 502059e0 <irq_table+0x50>
    502017a0:	87b2                	mv	a5,a2
    502017a2:	e394                	sd	a3,0(a5)
    502017a4:	07a1                	addi	a5,a5,8
    502017a6:	fee79ee3          	bne	a5,a4,502017a2 <screen_clear+0x22>
    502017aa:	05078713          	addi	a4,a5,80
    502017ae:	05060613          	addi	a2,a2,80
    502017b2:	feb717e3          	bne	a4,a1,502017a0 <screen_clear+0x20>
    502017b6:	02023423          	sd	zero,40(tp) # 28 <_start-0x50200fd8>
    502017ba:	bdf5                	j	502016b6 <screen_reflush>

00000000502017bc <init_screen>:
    502017bc:	1141                	addi	sp,sp,-16
    502017be:	45ed                	li	a1,27
    502017c0:	00001517          	auipc	a0,0x1
    502017c4:	23050513          	addi	a0,a0,560 # 502029f0 <strcat+0x142>
    502017c8:	e406                	sd	ra,8(sp)
    502017ca:	761000ef          	jal	5020272a <printv>
    502017ce:	45ed                	li	a1,27
    502017d0:	00001517          	auipc	a0,0x1
    502017d4:	22850513          	addi	a0,a0,552 # 502029f8 <strcat+0x14a>
    502017d8:	753000ef          	jal	5020272a <printv>
    502017dc:	00002617          	auipc	a2,0x2
    502017e0:	0ac63603          	ld	a2,172(a2) # 50203888 <__SDATA_BEGIN__>
    502017e4:	00003717          	auipc	a4,0x3
    502017e8:	20c70713          	addi	a4,a4,524 # 502049f0 <new_screen>
    502017ec:	00003697          	auipc	a3,0x3
    502017f0:	25468693          	addi	a3,a3,596 # 50204a40 <new_screen+0x50>
    502017f4:	00004597          	auipc	a1,0x4
    502017f8:	19c58593          	addi	a1,a1,412 # 50205990 <irq_table>
    502017fc:	87ba                	mv	a5,a4
    502017fe:	e390                	sd	a2,0(a5)
    50201800:	07a1                	addi	a5,a5,8
    50201802:	fed79ee3          	bne	a5,a3,502017fe <init_screen+0x42>
    50201806:	05070713          	addi	a4,a4,80
    5020180a:	05078693          	addi	a3,a5,80
    5020180e:	feb717e3          	bne	a4,a1,502017fc <init_screen+0x40>
    50201812:	60a2                	ld	ra,8(sp)
    50201814:	02023423          	sd	zero,40(tp) # 28 <_start-0x50200fd8>
    50201818:	0141                	addi	sp,sp,16
    5020181a:	bd71                	j	502016b6 <screen_reflush>

000000005020181c <handle_irq_timer>:
    5020181c:	1141                	addi	sp,sp,-16
    5020181e:	e406                	sd	ra,8(sp)
    50201820:	0a9000ef          	jal	502020c8 <get_ticks>
    50201824:	520007b7          	lui	a5,0x52000
    50201828:	f3078793          	addi	a5,a5,-208 # 51ffff30 <__BSS_END__+0x1df98c0>
    5020182c:	639c                	ld	a5,0(a5)
    5020182e:	5dc50513          	addi	a0,a0,1500
    50201832:	4701                	li	a4,0
    50201834:	4681                	li	a3,0
    50201836:	4601                	li	a2,0
    50201838:	4581                	li	a1,0
    5020183a:	9782                	jalr	a5
    5020183c:	60a2                	ld	ra,8(sp)
    5020183e:	0141                	addi	sp,sp,16
    50201840:	a16d                	j	50201cea <do_scheduler>

0000000050201842 <handle_other>:
    50201842:	711d                	addi	sp,sp,-96
    50201844:	fc4e                	sd	s3,56(sp)
    50201846:	f852                	sd	s4,48(sp)
    50201848:	f456                	sd	s5,40(sp)
    5020184a:	f05a                	sd	s6,32(sp)
    5020184c:	ec5e                	sd	s7,24(sp)
    5020184e:	e862                	sd	s8,16(sp)
    50201850:	e466                	sd	s9,8(sp)
    50201852:	ec86                	sd	ra,88(sp)
    50201854:	e8a2                	sd	s0,80(sp)
    50201856:	e4a6                	sd	s1,72(sp)
    50201858:	e0ca                	sd	s2,64(sp)
    5020185a:	8baa                	mv	s7,a0
    5020185c:	8c2e                	mv	s8,a1
    5020185e:	8cb2                	mv	s9,a2
    50201860:	8aaa                	mv	s5,a0
    50201862:	00001a17          	auipc	s4,0x1
    50201866:	48ea0a13          	addi	s4,s4,1166 # 50202cf0 <reg_name.1>
    5020186a:	598d                	li	s3,-29
    5020186c:	4b11                	li	s6,4
    5020186e:	8956                	mv	s2,s5
    50201870:	84d2                	mv	s1,s4
    50201872:	440d                	li	s0,3
    50201874:	00001517          	auipc	a0,0x1
    50201878:	18c50513          	addi	a0,a0,396 # 50202a00 <strcat+0x152>
    5020187c:	09340363          	beq	s0,s3,50201902 <handle_other+0xc0>
    50201880:	00093603          	ld	a2,0(s2)
    50201884:	608c                	ld	a1,0(s1)
    50201886:	347d                	addiw	s0,s0,-1
    50201888:	04a1                	addi	s1,s1,8
    5020188a:	675000ef          	jal	502026fe <printk>
    5020188e:	0921                	addi	s2,s2,8
    50201890:	f075                	bnez	s0,50201874 <handle_other+0x32>
    50201892:	00001517          	auipc	a0,0x1
    50201896:	17e50513          	addi	a0,a0,382 # 50202a10 <strcat+0x162>
    5020189a:	298d                	addiw	s3,s3,3
    5020189c:	663000ef          	jal	502026fe <printk>
    502018a0:	0a61                	addi	s4,s4,24
    502018a2:	0ae1                	addi	s5,s5,24
    502018a4:	fd6995e3          	bne	s3,s6,5020186e <handle_other+0x2c>
    502018a8:	118bb683          	ld	a3,280(s7)
    502018ac:	110bb603          	ld	a2,272(s7)
    502018b0:	100bb583          	ld	a1,256(s7)
    502018b4:	00001517          	auipc	a0,0x1
    502018b8:	16450513          	addi	a0,a0,356 # 50202a18 <strcat+0x16a>
    502018bc:	643000ef          	jal	502026fe <printk>
    502018c0:	108bb583          	ld	a1,264(s7)
    502018c4:	00001517          	auipc	a0,0x1
    502018c8:	18450513          	addi	a0,a0,388 # 50202a48 <strcat+0x19a>
    502018cc:	633000ef          	jal	502026fe <printk>
    502018d0:	8666                	mv	a2,s9
    502018d2:	85e2                	mv	a1,s8
    502018d4:	00001517          	auipc	a0,0x1
    502018d8:	18450513          	addi	a0,a0,388 # 50202a58 <strcat+0x1aa>
    502018dc:	623000ef          	jal	502026fe <printk>
    502018e0:	05700693          	li	a3,87
    502018e4:	00001617          	auipc	a2,0x1
    502018e8:	19460613          	addi	a2,a2,404 # 50202a78 <strcat+0x1ca>
    502018ec:	00001597          	auipc	a1,0x1
    502018f0:	50458593          	addi	a1,a1,1284 # 50202df0 <__FUNCTION__.0>
    502018f4:	00001517          	auipc	a0,0x1
    502018f8:	19c50513          	addi	a0,a0,412 # 50202a90 <strcat+0x1e2>
    502018fc:	603000ef          	jal	502026fe <printk>
    50201900:	a001                	j	50201900 <handle_other+0xbe>
    50201902:	00001517          	auipc	a0,0x1
    50201906:	10e50513          	addi	a0,a0,270 # 50202a10 <strcat+0x162>
    5020190a:	5f5000ef          	jal	502026fe <printk>
    5020190e:	bf69                	j	502018a8 <handle_other+0x66>

0000000050201910 <interrupt_helper>:
    50201910:	00161793          	slli	a5,a2,0x1
    50201914:	8732                	mv	a4,a2
    50201916:	8385                	srli	a5,a5,0x1
    50201918:	882a                	mv	a6,a0
    5020191a:	88ae                	mv	a7,a1
    5020191c:	00064f63          	bltz	a2,5020193a <interrupt_helper+0x2a>
    50201920:	00161693          	slli	a3,a2,0x1
    50201924:	8295                	srli	a3,a3,0x5
    50201926:	e68d                	bnez	a3,50201950 <interrupt_helper+0x40>
    50201928:	078e                	slli	a5,a5,0x3
    5020192a:	00004697          	auipc	a3,0x4
    5020192e:	06668693          	addi	a3,a3,102 # 50205990 <irq_table>
    50201932:	97b6                	add	a5,a5,a3
    50201934:	73bc                	ld	a5,96(a5)
    50201936:	cf89                	beqz	a5,50201950 <interrupt_helper+0x40>
    50201938:	8782                	jr	a5
    5020193a:	46ad                	li	a3,11
    5020193c:	00f6ea63          	bltu	a3,a5,50201950 <interrupt_helper+0x40>
    50201940:	078e                	slli	a5,a5,0x3
    50201942:	00004697          	auipc	a3,0x4
    50201946:	04e68693          	addi	a3,a3,78 # 50205990 <irq_table>
    5020194a:	97b6                	add	a5,a5,a3
    5020194c:	639c                	ld	a5,0(a5)
    5020194e:	f7ed                	bnez	a5,50201938 <interrupt_helper+0x28>
    50201950:	1141                	addi	sp,sp,-16
    50201952:	85c6                	mv	a1,a7
    50201954:	8542                	mv	a0,a6
    50201956:	863a                	mv	a2,a4
    50201958:	e406                	sd	ra,8(sp)
    5020195a:	ee9ff0ef          	jal	50201842 <handle_other>

000000005020195e <init_exception>:
    5020195e:	00004617          	auipc	a2,0x4
    50201962:	09260613          	addi	a2,a2,146 # 502059f0 <exc_table>
    50201966:	87b2                	mv	a5,a2
    50201968:	00004697          	auipc	a3,0x4
    5020196c:	10868693          	addi	a3,a3,264 # 50205a70 <mlocks>
    50201970:	00000717          	auipc	a4,0x0
    50201974:	ed270713          	addi	a4,a4,-302 # 50201842 <handle_other>
    50201978:	e398                	sd	a4,0(a5)
    5020197a:	07a1                	addi	a5,a5,8
    5020197c:	fed79ee3          	bne	a5,a3,50201978 <init_exception+0x1a>
    50201980:	00004797          	auipc	a5,0x4
    50201984:	01078793          	addi	a5,a5,16 # 50205990 <irq_table>
    50201988:	e398                	sd	a4,0(a5)
    5020198a:	07a1                	addi	a5,a5,8
    5020198c:	fec79ee3          	bne	a5,a2,50201988 <init_exception+0x2a>
    50201990:	00001717          	auipc	a4,0x1
    50201994:	81070713          	addi	a4,a4,-2032 # 502021a0 <handle_syscall>
    50201998:	00000797          	auipc	a5,0x0
    5020199c:	e8478793          	addi	a5,a5,-380 # 5020181c <handle_irq_timer>
    502019a0:	00004697          	auipc	a3,0x4
    502019a4:	08e6b823          	sd	a4,144(a3) # 50205a30 <exc_table+0x40>
    502019a8:	00004717          	auipc	a4,0x4
    502019ac:	00f73823          	sd	a5,16(a4) # 502059b8 <irq_table+0x28>
    502019b0:	be35                	j	502014ec <setup_exception>

00000000502019b2 <load_task_img>:
    502019b2:	7139                	addi	sp,sp,-64
    502019b4:	e852                	sd	s4,16(sp)
    502019b6:	00002a17          	auipc	s4,0x2
    502019ba:	f1aa0a13          	addi	s4,s4,-230 # 502038d0 <tasks>
    502019be:	f822                	sd	s0,48(sp)
    502019c0:	f426                	sd	s1,40(sp)
    502019c2:	f04a                	sd	s2,32(sp)
    502019c4:	ec4e                	sd	s3,24(sp)
    502019c6:	fc06                	sd	ra,56(sp)
    502019c8:	892a                	mv	s2,a0
    502019ca:	84d2                	mv	s1,s4
    502019cc:	4401                	li	s0,0
    502019ce:	49c1                	li	s3,16
    502019d0:	85a6                	mv	a1,s1
    502019d2:	854a                	mv	a0,s2
    502019d4:	60f000ef          	jal	502027e2 <strcmp>
    502019d8:	cd39                	beqz	a0,50201a36 <load_task_img+0x84>
    502019da:	2405                	addiw	s0,s0,1
    502019dc:	04e1                	addi	s1,s1,24
    502019de:	ff3419e3          	bne	s0,s3,502019d0 <load_task_img+0x1e>
    502019e2:	00001917          	auipc	s2,0x1
    502019e6:	1d690913          	addi	s2,s2,470 # 50202bb8 <strcat+0x30a>
    502019ea:	520004b7          	lui	s1,0x52000
    502019ee:	844a                	mv	s0,s2
    502019f0:	f0848493          	addi	s1,s1,-248 # 51ffff08 <__BSS_END__+0x1df9898>
    502019f4:	a021                	j	502019fc <load_task_img+0x4a>
    502019f6:	fff44503          	lbu	a0,-1(s0)
    502019fa:	9802                	jalr	a6
    502019fc:	00001517          	auipc	a0,0x1
    50201a00:	1bc50513          	addi	a0,a0,444 # 50202bb8 <strcat+0x30a>
    50201a04:	5c1000ef          	jal	502027c4 <strlen>
    50201a08:	0405                	addi	s0,s0,1
    50201a0a:	412407bb          	subw	a5,s0,s2
    50201a0e:	37fd                	addiw	a5,a5,-1
    50201a10:	0004b803          	ld	a6,0(s1)
    50201a14:	4701                	li	a4,0
    50201a16:	4681                	li	a3,0
    50201a18:	4601                	li	a2,0
    50201a1a:	4581                	li	a1,0
    50201a1c:	fca7cde3          	blt	a5,a0,502019f6 <load_task_img+0x44>
    50201a20:	4529                	li	a0,10
    50201a22:	9802                	jalr	a6
    50201a24:	70e2                	ld	ra,56(sp)
    50201a26:	7442                	ld	s0,48(sp)
    50201a28:	74a2                	ld	s1,40(sp)
    50201a2a:	7902                	ld	s2,32(sp)
    50201a2c:	69e2                	ld	s3,24(sp)
    50201a2e:	6a42                	ld	s4,16(sp)
    50201a30:	4501                	li	a0,0
    50201a32:	6121                	addi	sp,sp,64
    50201a34:	8082                	ret
    50201a36:	00141793          	slli	a5,s0,0x1
    50201a3a:	97a2                	add	a5,a5,s0
    50201a3c:	078e                	slli	a5,a5,0x3
    50201a3e:	9a3e                	add	s4,s4,a5
    50201a40:	010a2703          	lw	a4,16(s4)
    50201a44:	520007b7          	lui	a5,0x52000
    50201a48:	f1878793          	addi	a5,a5,-232 # 51ffff18 <__BSS_END__+0x1df98a8>
    50201a4c:	41f7549b          	sraiw	s1,a4,0x1f
    50201a50:	0174d49b          	srliw	s1,s1,0x17
    50201a54:	9cb9                	addw	s1,s1,a4
    50201a56:	014a6583          	lwu	a1,20(s4)
    50201a5a:	639c                	ld	a5,0(a5)
    50201a5c:	4094d49b          	sraiw	s1,s1,0x9
    50201a60:	02049613          	slli	a2,s1,0x20
    50201a64:	9201                	srli	a2,a2,0x20
    50201a66:	4701                	li	a4,0
    50201a68:	4681                	li	a3,0
    50201a6a:	59000537          	lui	a0,0x59000
    50201a6e:	9782                	jalr	a5
    50201a70:	010a2783          	lw	a5,16(s4)
    50201a74:	014a2603          	lw	a2,20(s4)
    50201a78:	0094949b          	slliw	s1,s1,0x9
    50201a7c:	9f85                	subw	a5,a5,s1
    50201a7e:	01041513          	slli	a0,s0,0x10
    50201a82:	52000737          	lui	a4,0x52000
    50201a86:	590005b7          	lui	a1,0x59000
    50201a8a:	9d39                	addw	a0,a0,a4
    50201a8c:	0096161b          	slliw	a2,a2,0x9
    50201a90:	9dbd                	addw	a1,a1,a5
    50201a92:	e42a                	sd	a0,8(sp)
    50201a94:	4ef000ef          	jal	50202782 <memcpy>
    50201a98:	70e2                	ld	ra,56(sp)
    50201a9a:	7442                	ld	s0,48(sp)
    50201a9c:	6522                	ld	a0,8(sp)
    50201a9e:	74a2                	ld	s1,40(sp)
    50201aa0:	7902                	ld	s2,32(sp)
    50201aa2:	69e2                	ld	s3,24(sp)
    50201aa4:	6a42                	ld	s4,16(sp)
    50201aa6:	6121                	addi	sp,sp,64
    50201aa8:	8082                	ret

0000000050201aaa <batch>:
    50201aaa:	00001697          	auipc	a3,0x1
    50201aae:	3566a683          	lw	a3,854(a3) # 50202e00 <__FUNCTION__.0+0x10>
    50201ab2:	00001717          	auipc	a4,0x1
    50201ab6:	35275703          	lhu	a4,850(a4) # 50202e04 <__FUNCTION__.0+0x14>
    50201aba:	00001797          	auipc	a5,0x1
    50201abe:	34c7c783          	lbu	a5,844(a5) # 50202e06 <__FUNCTION__.0+0x16>
    50201ac2:	1101                	addi	sp,sp,-32
    50201ac4:	850a                	mv	a0,sp
    50201ac6:	ec06                	sd	ra,24(sp)
    50201ac8:	000103a3          	sb	zero,7(sp)
    50201acc:	00010423          	sb	zero,8(sp)
    50201ad0:	000104a3          	sb	zero,9(sp)
    50201ad4:	00010523          	sb	zero,10(sp)
    50201ad8:	000105a3          	sb	zero,11(sp)
    50201adc:	00010623          	sb	zero,12(sp)
    50201ae0:	000106a3          	sb	zero,13(sp)
    50201ae4:	00010723          	sb	zero,14(sp)
    50201ae8:	000107a3          	sb	zero,15(sp)
    50201aec:	c036                	sw	a3,0(sp)
    50201aee:	00e11223          	sh	a4,4(sp)
    50201af2:	00f10323          	sb	a5,6(sp)
    50201af6:	ebdff0ef          	jal	502019b2 <load_task_img>
    50201afa:	c111                	beqz	a0,50201afe <batch+0x54>
    50201afc:	9502                	jalr	a0
    50201afe:	850a                	mv	a0,sp
    50201b00:	4615                	li	a2,5
    50201b02:	00001597          	auipc	a1,0x1
    50201b06:	0e658593          	addi	a1,a1,230 # 50202be8 <strcat+0x33a>
    50201b0a:	479000ef          	jal	50202782 <memcpy>
    50201b0e:	850a                	mv	a0,sp
    50201b10:	ea3ff0ef          	jal	502019b2 <load_task_img>
    50201b14:	c111                	beqz	a0,50201b18 <batch+0x6e>
    50201b16:	9502                	jalr	a0
    50201b18:	850a                	mv	a0,sp
    50201b1a:	4619                	li	a2,6
    50201b1c:	00001597          	auipc	a1,0x1
    50201b20:	0d458593          	addi	a1,a1,212 # 50202bf0 <strcat+0x342>
    50201b24:	45f000ef          	jal	50202782 <memcpy>
    50201b28:	850a                	mv	a0,sp
    50201b2a:	e89ff0ef          	jal	502019b2 <load_task_img>
    50201b2e:	c111                	beqz	a0,50201b32 <batch+0x88>
    50201b30:	9502                	jalr	a0
    50201b32:	850a                	mv	a0,sp
    50201b34:	461d                	li	a2,7
    50201b36:	00001597          	auipc	a1,0x1
    50201b3a:	0c258593          	addi	a1,a1,194 # 50202bf8 <strcat+0x34a>
    50201b3e:	445000ef          	jal	50202782 <memcpy>
    50201b42:	850a                	mv	a0,sp
    50201b44:	e6fff0ef          	jal	502019b2 <load_task_img>
    50201b48:	c111                	beqz	a0,50201b4c <batch+0xa2>
    50201b4a:	9502                	jalr	a0
    50201b4c:	60e2                	ld	ra,24(sp)
    50201b4e:	6105                	addi	sp,sp,32
    50201b50:	8082                	ret

0000000050201b52 <init_locks>:
    50201b52:	00004797          	auipc	a5,0x4
    50201b56:	f2678793          	addi	a5,a5,-218 # 50205a78 <mlocks+0x8>
    50201b5a:	4701                	li	a4,0
    50201b5c:	00004517          	auipc	a0,0x4
    50201b60:	f1450513          	addi	a0,a0,-236 # 50205a70 <mlocks>
    50201b64:	55fd                	li	a1,-1
    50201b66:	4641                	li	a2,16
    50201b68:	00571693          	slli	a3,a4,0x5
    50201b6c:	96aa                	add	a3,a3,a0
    50201b6e:	0006a023          	sw	zero,0(a3)
    50201b72:	e39c                	sd	a5,0(a5)
    50201b74:	e79c                	sd	a5,8(a5)
    50201b76:	cb8c                	sw	a1,16(a5)
    50201b78:	2705                	addiw	a4,a4,1
    50201b7a:	02078793          	addi	a5,a5,32
    50201b7e:	fec715e3          	bne	a4,a2,50201b68 <init_locks+0x16>
    50201b82:	8082                	ret

0000000050201b84 <spin_lock_init>:
    50201b84:	00052023          	sw	zero,0(a0)
    50201b88:	8082                	ret

0000000050201b8a <spin_lock_try_acquire>:
    50201b8a:	411c                	lw	a5,0(a0)
    50201b8c:	c399                	beqz	a5,50201b92 <spin_lock_try_acquire+0x8>
    50201b8e:	4501                	li	a0,0
    50201b90:	8082                	ret
    50201b92:	4785                	li	a5,1
    50201b94:	c11c                	sw	a5,0(a0)
    50201b96:	853e                	mv	a0,a5
    50201b98:	8082                	ret

0000000050201b9a <spin_lock_acquire>:
    50201b9a:	4705                	li	a4,1
    50201b9c:	411c                	lw	a5,0(a0)
    50201b9e:	fee78fe3          	beq	a5,a4,50201b9c <spin_lock_acquire+0x2>
    50201ba2:	c118                	sw	a4,0(a0)
    50201ba4:	8082                	ret

0000000050201ba6 <spin_lock_release>:
    50201ba6:	00052023          	sw	zero,0(a0)
    50201baa:	8082                	ret

0000000050201bac <do_mutex_lock_init>:
    50201bac:	00002617          	auipc	a2,0x2
    50201bb0:	d0462603          	lw	a2,-764(a2) # 502038b0 <lock_used_num>
    50201bb4:	02c05263          	blez	a2,50201bd8 <do_mutex_lock_init+0x2c>
    50201bb8:	00004717          	auipc	a4,0x4
    50201bbc:	ed070713          	addi	a4,a4,-304 # 50205a88 <mlocks+0x18>
    50201bc0:	4781                	li	a5,0
    50201bc2:	a021                	j	50201bca <do_mutex_lock_init+0x1e>
    50201bc4:	2785                	addiw	a5,a5,1
    50201bc6:	00c78963          	beq	a5,a2,50201bd8 <do_mutex_lock_init+0x2c>
    50201bca:	4314                	lw	a3,0(a4)
    50201bcc:	02070713          	addi	a4,a4,32
    50201bd0:	fea69ae3          	bne	a3,a0,50201bc4 <do_mutex_lock_init+0x18>
    50201bd4:	853e                	mv	a0,a5
    50201bd6:	8082                	ret
    50201bd8:	00561713          	slli	a4,a2,0x5
    50201bdc:	00004797          	auipc	a5,0x4
    50201be0:	e9478793          	addi	a5,a5,-364 # 50205a70 <mlocks>
    50201be4:	97ba                	add	a5,a5,a4
    50201be6:	0016071b          	addiw	a4,a2,1
    50201bea:	cf88                	sw	a0,24(a5)
    50201bec:	00002797          	auipc	a5,0x2
    50201bf0:	cce7a223          	sw	a4,-828(a5) # 502038b0 <lock_used_num>
    50201bf4:	87b2                	mv	a5,a2
    50201bf6:	853e                	mv	a0,a5
    50201bf8:	8082                	ret

0000000050201bfa <do_mutex_lock_acquire>:
    50201bfa:	7139                	addi	sp,sp,-64
    50201bfc:	f822                	sd	s0,48(sp)
    50201bfe:	f426                	sd	s1,40(sp)
    50201c00:	00004417          	auipc	s0,0x4
    50201c04:	e7040413          	addi	s0,s0,-400 # 50205a70 <mlocks>
    50201c08:	00551493          	slli	s1,a0,0x5
    50201c0c:	f04a                	sd	s2,32(sp)
    50201c0e:	00940933          	add	s2,s0,s1
    50201c12:	00092783          	lw	a5,0(s2)
    50201c16:	fc06                	sd	ra,56(sp)
    50201c18:	cf9d                	beqz	a5,50201c56 <do_mutex_lock_acquire+0x5c>
    50201c1a:	ec4e                	sd	s3,24(sp)
    50201c1c:	00848993          	addi	s3,s1,8
    50201c20:	e456                	sd	s5,8(sp)
    50201c22:	e852                	sd	s4,16(sp)
    50201c24:	99a2                	add	s3,s3,s0
    50201c26:	4a85                	li	s5,1
    50201c28:	85ce                	mv	a1,s3
    50201c2a:	01020513          	addi	a0,tp,16 # 10 <_start-0x50200ff0>
    50201c2e:	20a000ef          	jal	50201e38 <do_block>
    50201c32:	8a12                	mv	s4,tp
    50201c34:	2b6000ef          	jal	50201eea <seek_ready_node>
    50201c38:	2ea000ef          	jal	50201f22 <get_pcb_from_node>
    50201c3c:	822a                	mv	tp,a0
    50201c3e:	03522223          	sw	s5,36(tp) # 24 <_start-0x50200fdc>
    50201c42:	8552                	mv	a0,s4
    50201c44:	8592                	mv	a1,tp
    50201c46:	f76ff0ef          	jal	502013bc <switch_to>
    50201c4a:	00092783          	lw	a5,0(s2)
    50201c4e:	ffe9                	bnez	a5,50201c28 <do_mutex_lock_acquire+0x2e>
    50201c50:	69e2                	ld	s3,24(sp)
    50201c52:	6a42                	ld	s4,16(sp)
    50201c54:	6aa2                	ld	s5,8(sp)
    50201c56:	9426                	add	s0,s0,s1
    50201c58:	4785                	li	a5,1
    50201c5a:	70e2                	ld	ra,56(sp)
    50201c5c:	c01c                	sw	a5,0(s0)
    50201c5e:	7442                	ld	s0,48(sp)
    50201c60:	74a2                	ld	s1,40(sp)
    50201c62:	7902                	ld	s2,32(sp)
    50201c64:	6121                	addi	sp,sp,64
    50201c66:	8082                	ret

0000000050201c68 <do_mutex_lock_release>:
    50201c68:	00551793          	slli	a5,a0,0x5
    50201c6c:	00004717          	auipc	a4,0x4
    50201c70:	e0470713          	addi	a4,a4,-508 # 50205a70 <mlocks>
    50201c74:	00f706b3          	add	a3,a4,a5
    50201c78:	6688                	ld	a0,8(a3)
    50201c7a:	07a1                	addi	a5,a5,8
    50201c7c:	973e                	add	a4,a4,a5
    50201c7e:	00e50d63          	beq	a0,a4,50201c98 <do_mutex_lock_release+0x30>
    50201c82:	1101                	addi	sp,sp,-32
    50201c84:	ec06                	sd	ra,24(sp)
    50201c86:	e436                	sd	a3,8(sp)
    50201c88:	200000ef          	jal	50201e88 <do_unblock>
    50201c8c:	66a2                	ld	a3,8(sp)
    50201c8e:	60e2                	ld	ra,24(sp)
    50201c90:	0006a023          	sw	zero,0(a3)
    50201c94:	6105                	addi	sp,sp,32
    50201c96:	8082                	ret
    50201c98:	0006a023          	sw	zero,0(a3)
    50201c9c:	8082                	ret

0000000050201c9e <allocKernelPage>:
    50201c9e:	00002797          	auipc	a5,0x2
    50201ca2:	c027b783          	ld	a5,-1022(a5) # 502038a0 <kernMemCurr>
    50201ca6:	6705                	lui	a4,0x1
    50201ca8:	177d                	addi	a4,a4,-1 # fff <_start-0x50200001>
    50201caa:	97ba                	add	a5,a5,a4
    50201cac:	76fd                	lui	a3,0xfffff
    50201cae:	00c5171b          	slliw	a4,a0,0xc
    50201cb2:	00d7f533          	and	a0,a5,a3
    50201cb6:	00a707b3          	add	a5,a4,a0
    50201cba:	00002717          	auipc	a4,0x2
    50201cbe:	bef73323          	sd	a5,-1050(a4) # 502038a0 <kernMemCurr>
    50201cc2:	8082                	ret

0000000050201cc4 <allocUserPage>:
    50201cc4:	00002797          	auipc	a5,0x2
    50201cc8:	bd47b783          	ld	a5,-1068(a5) # 50203898 <userMemCurr>
    50201ccc:	6705                	lui	a4,0x1
    50201cce:	177d                	addi	a4,a4,-1 # fff <_start-0x50200001>
    50201cd0:	97ba                	add	a5,a5,a4
    50201cd2:	76fd                	lui	a3,0xfffff
    50201cd4:	00c5171b          	slliw	a4,a0,0xc
    50201cd8:	00d7f533          	and	a0,a5,a3
    50201cdc:	00a707b3          	add	a5,a4,a0
    50201ce0:	00002717          	auipc	a4,0x2
    50201ce4:	baf73c23          	sd	a5,-1096(a4) # 50203898 <userMemCurr>
    50201ce8:	8082                	ret

0000000050201cea <do_scheduler>:
    50201cea:	1141                	addi	sp,sp,-16
    50201cec:	e406                	sd	ra,8(sp)
    50201cee:	e022                	sd	s0,0(sp)
    50201cf0:	436000ef          	jal	50202126 <check_sleeping>
    50201cf4:	00001517          	auipc	a0,0x1
    50201cf8:	f0c50513          	addi	a0,a0,-244 # 50202c00 <strcat+0x352>
    50201cfc:	8412                	mv	s0,tp
    50201cfe:	259000ef          	jal	50202756 <printl>
    50201d02:	505c                	lw	a5,36(s0)
    50201d04:	4705                	li	a4,1
    50201d06:	500c                	lw	a1,32(s0)
    50201d08:	0ce78b63          	beq	a5,a4,50201dde <do_scheduler+0xf4>
    50201d0c:	e7c5                	bnez	a5,50201db4 <do_scheduler+0xca>
    50201d0e:	00002797          	auipc	a5,0x2
    50201d12:	af278793          	addi	a5,a5,-1294 # 50203800 <pid0_pcb>
    50201d16:	cd81                	beqz	a1,50201d2e <do_scheduler+0x44>
    50201d18:	63d4                	ld	a3,128(a5)
    50201d1a:	01040713          	addi	a4,s0,16
    50201d1e:	00002617          	auipc	a2,0x2
    50201d22:	b5a60613          	addi	a2,a2,-1190 # 50203878 <sleep_queue>
    50201d26:	e298                	sd	a4,0(a3)
    50201d28:	ec14                	sd	a3,24(s0)
    50201d2a:	e3d8                	sd	a4,128(a5)
    50201d2c:	e810                	sd	a2,16(s0)
    50201d2e:	77b4                	ld	a3,104(a5)
    50201d30:	00004517          	auipc	a0,0x4
    50201d34:	f4050513          	addi	a0,a0,-192 # 50205c70 <pcb>
    50201d38:	4781                	li	a5,0
    50201d3a:	0086b803          	ld	a6,8(a3) # fffffffffffff008 <__BSS_END__+0xffffffffafdf8998>
    50201d3e:	6298                	ld	a4,0(a3)
    50201d40:	00004617          	auipc	a2,0x4
    50201d44:	f4060613          	addi	a2,a2,-192 # 50205c80 <pcb+0x10>
    50201d48:	68000593          	li	a1,1664
    50201d4c:	00e83023          	sd	a4,0(a6)
    50201d50:	01073423          	sd	a6,8(a4)
    50201d54:	0006b423          	sd	zero,8(a3)
    50201d58:	0006b023          	sd	zero,0(a3)
    50201d5c:	00f60733          	add	a4,a2,a5
    50201d60:	06e68d63          	beq	a3,a4,50201dda <do_scheduler+0xf0>
    50201d64:	06878793          	addi	a5,a5,104
    50201d68:	feb79ae3          	bne	a5,a1,50201d5c <do_scheduler+0x72>
    50201d6c:	00002797          	auipc	a5,0x2
    50201d70:	a9478793          	addi	a5,a5,-1388 # 50203800 <pid0_pcb>
    50201d74:	53f8                	lw	a4,100(a5)
    50201d76:	4685                	li	a3,1
    50201d78:	d3d4                	sw	a3,36(a5)
    50201d7a:	53b0                	lw	a2,96(a5)
    50201d7c:	823e                	mv	tp,a5
    50201d7e:	04e05c63          	blez	a4,50201dd6 <do_scheduler+0xec>
    50201d82:	04e64a63          	blt	a2,a4,50201dd6 <do_scheduler+0xec>
    50201d86:	863a                	mv	a2,a4
    50201d88:	538c                	lw	a1,32(a5)
    50201d8a:	00001517          	auipc	a0,0x1
    50201d8e:	ed650513          	addi	a0,a0,-298 # 50202c60 <strcat+0x3b2>
    50201d92:	1c5000ef          	jal	50202756 <printl>
    50201d96:	8522                	mv	a0,s0
    50201d98:	8592                	mv	a1,tp
    50201d9a:	e22ff0ef          	jal	502013bc <switch_to>
    50201d9e:	6402                	ld	s0,0(sp)
    50201da0:	60a2                	ld	ra,8(sp)
    50201da2:	02022583          	lw	a1,32(tp) # 20 <_start-0x50200fe0>
    50201da6:	00001517          	auipc	a0,0x1
    50201daa:	ee250513          	addi	a0,a0,-286 # 50202c88 <strcat+0x3da>
    50201dae:	0141                	addi	sp,sp,16
    50201db0:	1a70006f          	j	50202756 <printl>
    50201db4:	5070                	lw	a2,100(s0)
    50201db6:	00001517          	auipc	a0,0x1
    50201dba:	e6250513          	addi	a0,a0,-414 # 50202c18 <strcat+0x36a>
    50201dbe:	199000ef          	jal	50202756 <printl>
    50201dc2:	500c                	lw	a1,32(s0)
    50201dc4:	6402                	ld	s0,0(sp)
    50201dc6:	60a2                	ld	ra,8(sp)
    50201dc8:	00001517          	auipc	a0,0x1
    50201dcc:	e8050513          	addi	a0,a0,-384 # 50202c48 <strcat+0x39a>
    50201dd0:	0141                	addi	sp,sp,16
    50201dd2:	1850006f          	j	50202756 <printl>
    50201dd6:	d3f0                	sw	a2,100(a5)
    50201dd8:	bf45                	j	50201d88 <do_scheduler+0x9e>
    50201dda:	97aa                	add	a5,a5,a0
    50201ddc:	bf61                	j	50201d74 <do_scheduler+0x8a>
    50201dde:	5070                	lw	a2,100(s0)
    50201de0:	00c05463          	blez	a2,50201de8 <do_scheduler+0xfe>
    50201de4:	367d                	addiw	a2,a2,-1
    50201de6:	d070                	sw	a2,100(s0)
    50201de8:	f679                	bnez	a2,50201db6 <do_scheduler+0xcc>
    50201dea:	00002797          	auipc	a5,0x2
    50201dee:	a1678793          	addi	a5,a5,-1514 # 50203800 <pid0_pcb>
    50201df2:	dd95                	beqz	a1,50201d2e <do_scheduler+0x44>
    50201df4:	5030                	lw	a2,96(s0)
    50201df6:	7bb4                	ld	a3,112(a5)
    50201df8:	4709                	li	a4,2
    50201dfa:	d070                	sw	a2,100(s0)
    50201dfc:	d058                	sw	a4,36(s0)
    50201dfe:	01040713          	addi	a4,s0,16
    50201e02:	e298                	sd	a4,0(a3)
    50201e04:	00002617          	auipc	a2,0x2
    50201e08:	a6460613          	addi	a2,a2,-1436 # 50203868 <ready_queue>
    50201e0c:	ec14                	sd	a3,24(s0)
    50201e0e:	fbb8                	sd	a4,112(a5)
    50201e10:	e810                	sd	a2,16(s0)
    50201e12:	bf31                	j	50201d2e <do_scheduler+0x44>

0000000050201e14 <do_sleep>:
    50201e14:	1141                	addi	sp,sp,-16
    50201e16:	e022                	sd	s0,0(sp)
    50201e18:	e406                	sd	ra,8(sp)
    50201e1a:	02022223          	sw	zero,36(tp) # 24 <_start-0x50200fdc>
    50201e1e:	842a                	mv	s0,a0
    50201e20:	2b6000ef          	jal	502020d6 <get_timer>
    50201e24:	02041793          	slli	a5,s0,0x20
    50201e28:	9381                	srli	a5,a5,0x20
    50201e2a:	6402                	ld	s0,0(sp)
    50201e2c:	60a2                	ld	ra,8(sp)
    50201e2e:	97aa                	add	a5,a5,a0
    50201e30:	02f23823          	sd	a5,48(tp) # 30 <_start-0x50200fd0>
    50201e34:	0141                	addi	sp,sp,16
    50201e36:	bd55                	j	50201cea <do_scheduler>

0000000050201e38 <do_block>:
    50201e38:	4781                	li	a5,0
    50201e3a:	00004817          	auipc	a6,0x4
    50201e3e:	e3680813          	addi	a6,a6,-458 # 50205c70 <pcb>
    50201e42:	00004697          	auipc	a3,0x4
    50201e46:	e3e68693          	addi	a3,a3,-450 # 50205c80 <pcb+0x10>
    50201e4a:	68000613          	li	a2,1664
    50201e4e:	00f68733          	add	a4,a3,a5
    50201e52:	02e50263          	beq	a0,a4,50201e76 <do_block+0x3e>
    50201e56:	06878793          	addi	a5,a5,104
    50201e5a:	fec79ae3          	bne	a5,a2,50201e4e <do_block+0x16>
    50201e5e:	6598                	ld	a4,8(a1)
    50201e60:	00002797          	auipc	a5,0x2
    50201e64:	9a078793          	addi	a5,a5,-1632 # 50203800 <pid0_pcb>
    50201e68:	0207a223          	sw	zero,36(a5)
    50201e6c:	e308                	sd	a0,0(a4)
    50201e6e:	e518                	sd	a4,8(a0)
    50201e70:	e10c                	sd	a1,0(a0)
    50201e72:	e588                	sd	a0,8(a1)
    50201e74:	8082                	ret
    50201e76:	6598                	ld	a4,8(a1)
    50201e78:	97c2                	add	a5,a5,a6
    50201e7a:	0207a223          	sw	zero,36(a5)
    50201e7e:	e308                	sd	a0,0(a4)
    50201e80:	e518                	sd	a4,8(a0)
    50201e82:	e10c                	sd	a1,0(a0)
    50201e84:	e588                	sd	a0,8(a1)
    50201e86:	8082                	ret

0000000050201e88 <do_unblock>:
    50201e88:	6514                	ld	a3,8(a0)
    50201e8a:	6118                	ld	a4,0(a0)
    50201e8c:	4781                	li	a5,0
    50201e8e:	00004597          	auipc	a1,0x4
    50201e92:	de258593          	addi	a1,a1,-542 # 50205c70 <pcb>
    50201e96:	e298                	sd	a4,0(a3)
    50201e98:	e714                	sd	a3,8(a4)
    50201e9a:	00053423          	sd	zero,8(a0)
    50201e9e:	00004697          	auipc	a3,0x4
    50201ea2:	de268693          	addi	a3,a3,-542 # 50205c80 <pcb+0x10>
    50201ea6:	68000613          	li	a2,1664
    50201eaa:	00f68733          	add	a4,a3,a5
    50201eae:	02e50763          	beq	a0,a4,50201edc <do_unblock+0x54>
    50201eb2:	06878793          	addi	a5,a5,104
    50201eb6:	fec79ae3          	bne	a5,a2,50201eaa <do_unblock+0x22>
    50201eba:	00002797          	auipc	a5,0x2
    50201ebe:	94678793          	addi	a5,a5,-1722 # 50203800 <pid0_pcb>
    50201ec2:	873e                	mv	a4,a5
    50201ec4:	7bb4                	ld	a3,112(a5)
    50201ec6:	4609                	li	a2,2
    50201ec8:	d350                	sw	a2,36(a4)
    50201eca:	e288                	sd	a0,0(a3)
    50201ecc:	00002717          	auipc	a4,0x2
    50201ed0:	99c70713          	addi	a4,a4,-1636 # 50203868 <ready_queue>
    50201ed4:	e514                	sd	a3,8(a0)
    50201ed6:	e118                	sd	a4,0(a0)
    50201ed8:	fba8                	sd	a0,112(a5)
    50201eda:	8082                	ret
    50201edc:	00f58733          	add	a4,a1,a5
    50201ee0:	00002797          	auipc	a5,0x2
    50201ee4:	92078793          	addi	a5,a5,-1760 # 50203800 <pid0_pcb>
    50201ee8:	bff1                	j	50201ec4 <do_unblock+0x3c>

0000000050201eea <seek_ready_node>:
    50201eea:	00002517          	auipc	a0,0x2
    50201eee:	97e53503          	ld	a0,-1666(a0) # 50203868 <ready_queue>
    50201ef2:	6518                	ld	a4,8(a0)
    50201ef4:	611c                	ld	a5,0(a0)
    50201ef6:	e31c                	sd	a5,0(a4)
    50201ef8:	e798                	sd	a4,8(a5)
    50201efa:	00053423          	sd	zero,8(a0)
    50201efe:	00053023          	sd	zero,0(a0)
    50201f02:	8082                	ret

0000000050201f04 <add_node_to_q>:
    50201f04:	659c                	ld	a5,8(a1)
    50201f06:	e388                	sd	a0,0(a5)
    50201f08:	e51c                	sd	a5,8(a0)
    50201f0a:	e10c                	sd	a1,0(a0)
    50201f0c:	e588                	sd	a0,8(a1)
    50201f0e:	8082                	ret

0000000050201f10 <delete_node_from_q>:
    50201f10:	6518                	ld	a4,8(a0)
    50201f12:	611c                	ld	a5,0(a0)
    50201f14:	e31c                	sd	a5,0(a4)
    50201f16:	e798                	sd	a4,8(a5)
    50201f18:	00053423          	sd	zero,8(a0)
    50201f1c:	00053023          	sd	zero,0(a0)
    50201f20:	8082                	ret

0000000050201f22 <get_pcb_from_node>:
    50201f22:	4781                	li	a5,0
    50201f24:	00004597          	auipc	a1,0x4
    50201f28:	d4c58593          	addi	a1,a1,-692 # 50205c70 <pcb>
    50201f2c:	00004697          	auipc	a3,0x4
    50201f30:	d5468693          	addi	a3,a3,-684 # 50205c80 <pcb+0x10>
    50201f34:	68000613          	li	a2,1664
    50201f38:	00f68733          	add	a4,a3,a5
    50201f3c:	00e50b63          	beq	a0,a4,50201f52 <get_pcb_from_node+0x30>
    50201f40:	06878793          	addi	a5,a5,104
    50201f44:	fec79ae3          	bne	a5,a2,50201f38 <get_pcb_from_node+0x16>
    50201f48:	00002517          	auipc	a0,0x2
    50201f4c:	8b850513          	addi	a0,a0,-1864 # 50203800 <pid0_pcb>
    50201f50:	8082                	ret
    50201f52:	00f58533          	add	a0,a1,a5
    50201f56:	8082                	ret

0000000050201f58 <calculate_time_slice>:
    50201f58:	0006079b          	sext.w	a5,a2
    50201f5c:	06064e63          	bltz	a2,50201fd8 <calculate_time_slice+0x80>
    50201f60:	08b7d763          	bge	a5,a1,50201fee <calculate_time_slice+0x96>
    50201f64:	01f6579b          	srliw	a5,a2,0x1f
    50201f68:	e3d9                	bnez	a5,50201fee <calculate_time_slice+0x96>
    50201f6a:	86aa                	mv	a3,a0
    50201f6c:	4701                	li	a4,0
    50201f6e:	0006a803          	lw	a6,0(a3)
    50201f72:	2705                	addiw	a4,a4,1
    50201f74:	0691                	addi	a3,a3,4
    50201f76:	97c2                	add	a5,a5,a6
    50201f78:	feb74be3          	blt	a4,a1,50201f6e <calculate_time_slice+0x16>
    50201f7c:	02b7c6b3          	div	a3,a5,a1
    50201f80:	4e01                	li	t3,0
    50201f82:	4881                	li	a7,0
    50201f84:	4701                	li	a4,0
    50201f86:	06400313          	li	t1,100
    50201f8a:	411c                	lw	a5,0(a0)
    50201f8c:	4801                	li	a6,0
    50201f8e:	0511                	addi	a0,a0,4
    50201f90:	40f687bb          	subw	a5,a3,a5
    50201f94:	00f05563          	blez	a5,50201f9e <calculate_time_slice+0x46>
    50201f98:	02678833          	mul	a6,a5,t1
    50201f9c:	98c2                	add	a7,a7,a6
    50201f9e:	02e60963          	beq	a2,a4,50201fd0 <calculate_time_slice+0x78>
    50201fa2:	2705                	addiw	a4,a4,1
    50201fa4:	feb743e3          	blt	a4,a1,50201f8a <calculate_time_slice+0x32>
    50201fa8:	03105c63          	blez	a7,50201fe0 <calculate_time_slice+0x88>
    50201fac:	004e1513          	slli	a0,t3,0x4
    50201fb0:	41c50533          	sub	a0,a0,t3
    50201fb4:	050a                	slli	a0,a0,0x2
    50201fb6:	4018d793          	srai	a5,a7,0x1
    50201fba:	953e                	add	a0,a0,a5
    50201fbc:	03154533          	div	a0,a0,a7
    50201fc0:	2501                	sext.w	a0,a0
    50201fc2:	03c00793          	li	a5,60
    50201fc6:	00a7c763          	blt	a5,a0,50201fd4 <calculate_time_slice+0x7c>
    50201fca:	00a05963          	blez	a0,50201fdc <calculate_time_slice+0x84>
    50201fce:	8082                	ret
    50201fd0:	8e42                	mv	t3,a6
    50201fd2:	bfc1                	j	50201fa2 <calculate_time_slice+0x4a>
    50201fd4:	853e                	mv	a0,a5
    50201fd6:	8082                	ret
    50201fd8:	4781                	li	a5,0
    50201fda:	b759                	j	50201f60 <calculate_time_slice+0x8>
    50201fdc:	4505                	li	a0,1
    50201fde:	8082                	ret
    50201fe0:	4015d51b          	sraiw	a0,a1,0x1
    50201fe4:	03c5051b          	addiw	a0,a0,60
    50201fe8:	02b5453b          	divw	a0,a0,a1
    50201fec:	bfd9                	j	50201fc2 <calculate_time_slice+0x6a>
    50201fee:	557d                	li	a0,-1
    50201ff0:	8082                	ret

0000000050201ff2 <do_set_sche_workload>:
    50201ff2:	05022703          	lw	a4,80(tp) # 50 <_start-0x50200fb0>
    50201ff6:	8792                	mv	a5,tp
    50201ff8:	cf25                	beqz	a4,50202070 <do_set_sche_workload+0x7e>
    50201ffa:	03c22703          	lw	a4,60(tp) # 3c <_start-0x50200fc4>
    50201ffe:	06a70863          	beq	a4,a0,5020206e <do_set_sche_workload+0x7c>
    50202002:	03822703          	lw	a4,56(tp) # 38 <_start-0x50200fc8>
    50202006:	05c22603          	lw	a2,92(tp) # 5c <_start-0x50200fa4>
    5020200a:	00004697          	auipc	a3,0x4
    5020200e:	c6668693          	addi	a3,a3,-922 # 50205c70 <pcb>
    50202012:	2705                	addiw	a4,a4,1
    50202014:	00261593          	slli	a1,a2,0x2
    50202018:	96ae                	add	a3,a3,a1
    5020201a:	02a22e23          	sw	a0,60(tp) # 3c <_start-0x50200fc4>
    5020201e:	02e22c23          	sw	a4,56(tp) # 38 <_start-0x50200fc8>
    50202022:	68e6a023          	sw	a4,1664(a3)
    50202026:	4685                	li	a3,1
    50202028:	00002597          	auipc	a1,0x2
    5020202c:	8905a583          	lw	a1,-1904(a1) # 502038b8 <table_p>
    50202030:	00d71763          	bne	a4,a3,5020203e <do_set_sche_workload+0x4c>
    50202034:	2585                	addiw	a1,a1,1
    50202036:	00002717          	auipc	a4,0x2
    5020203a:	88b72123          	sw	a1,-1918(a4) # 502038b8 <table_p>
    5020203e:	00002717          	auipc	a4,0x2
    50202042:	87e72703          	lw	a4,-1922(a4) # 502038bc <fly_num>
    50202046:	04e5d963          	bge	a1,a4,50202098 <do_set_sche_workload+0xa6>
    5020204a:	86ba                	mv	a3,a4
    5020204c:	06e05c63          	blez	a4,502020c4 <do_set_sche_workload+0xd2>
    50202050:	03c00713          	li	a4,60
    50202054:	02d7473b          	divw	a4,a4,a3
    50202058:	0007061b          	sext.w	a2,a4
    5020205c:	06e05263          	blez	a4,502020c0 <do_set_sche_workload+0xce>
    50202060:	538c                	lw	a1,32(a5)
    50202062:	d3b0                	sw	a2,96(a5)
    50202064:	00001517          	auipc	a0,0x1
    50202068:	c4450513          	addi	a0,a0,-956 # 50202ca8 <strcat+0x3fa>
    5020206c:	a5ed                	j	50202756 <printl>
    5020206e:	8082                	ret
    50202070:	00002717          	auipc	a4,0x2
    50202074:	84c72703          	lw	a4,-1972(a4) # 502038bc <fly_num>
    50202078:	4685                	li	a3,1
    5020207a:	02a22e23          	sw	a0,60(tp) # 3c <_start-0x50200fc4>
    5020207e:	0017061b          	addiw	a2,a4,1
    50202082:	04e22e23          	sw	a4,92(tp) # 5c <_start-0x50200fa4>
    50202086:	02022c23          	sw	zero,56(tp) # 38 <_start-0x50200fc8>
    5020208a:	00002717          	auipc	a4,0x2
    5020208e:	82c72923          	sw	a2,-1998(a4) # 502038bc <fly_num>
    50202092:	04d22823          	sw	a3,80(tp) # 50 <_start-0x50200fb0>
    50202096:	8082                	ret
    50202098:	1101                	addi	sp,sp,-32
    5020209a:	00004517          	auipc	a0,0x4
    5020209e:	25650513          	addi	a0,a0,598 # 502062f0 <FLY_LENGTH_TABLE>
    502020a2:	ec06                	sd	ra,24(sp)
    502020a4:	e43e                	sd	a5,8(sp)
    502020a6:	eb3ff0ef          	jal	50201f58 <calculate_time_slice>
    502020aa:	67a2                	ld	a5,8(sp)
    502020ac:	60e2                	ld	ra,24(sp)
    502020ae:	862a                	mv	a2,a0
    502020b0:	538c                	lw	a1,32(a5)
    502020b2:	d3a8                	sw	a0,96(a5)
    502020b4:	00001517          	auipc	a0,0x1
    502020b8:	bf450513          	addi	a0,a0,-1036 # 50202ca8 <strcat+0x3fa>
    502020bc:	6105                	addi	sp,sp,32
    502020be:	ad61                	j	50202756 <printl>
    502020c0:	4605                	li	a2,1
    502020c2:	bf79                	j	50202060 <do_set_sche_workload+0x6e>
    502020c4:	4685                	li	a3,1
    502020c6:	b769                	j	50202050 <do_set_sche_workload+0x5e>

00000000502020c8 <get_ticks>:
    502020c8:	c0102573          	rdtime	a0
    502020cc:	00001797          	auipc	a5,0x1
    502020d0:	7ea7be23          	sd	a0,2044(a5) # 502038c8 <time_elapsed>
    502020d4:	8082                	ret

00000000502020d6 <get_timer>:
    502020d6:	c01027f3          	rdtime	a5
    502020da:	00001517          	auipc	a0,0x1
    502020de:	7e653503          	ld	a0,2022(a0) # 502038c0 <time_base>
    502020e2:	00001717          	auipc	a4,0x1
    502020e6:	7ef73323          	sd	a5,2022(a4) # 502038c8 <time_elapsed>
    502020ea:	02a7d533          	divu	a0,a5,a0
    502020ee:	8082                	ret

00000000502020f0 <get_time_base>:
    502020f0:	00001517          	auipc	a0,0x1
    502020f4:	7d053503          	ld	a0,2000(a0) # 502038c0 <time_base>
    502020f8:	8082                	ret

00000000502020fa <latency>:
    502020fa:	c01026f3          	rdtime	a3
    502020fe:	00001617          	auipc	a2,0x1
    50202102:	7c260613          	addi	a2,a2,1986 # 502038c0 <time_base>
    50202106:	621c                	ld	a5,0(a2)
    50202108:	02f6d6b3          	divu	a3,a3,a5
    5020210c:	c01027f3          	rdtime	a5
    50202110:	6218                	ld	a4,0(a2)
    50202112:	00001597          	auipc	a1,0x1
    50202116:	7af5bb23          	sd	a5,1974(a1) # 502038c8 <time_elapsed>
    5020211a:	02e7d7b3          	divu	a5,a5,a4
    5020211e:	8f95                	sub	a5,a5,a3
    50202120:	fea7e6e3          	bltu	a5,a0,5020210c <latency+0x12>
    50202124:	8082                	ret

0000000050202126 <check_sleeping>:
    50202126:	7139                	addi	sp,sp,-64
    50202128:	fc06                	sd	ra,56(sp)
    5020212a:	f822                	sd	s0,48(sp)
    5020212c:	ec4e                	sd	s3,24(sp)
    5020212e:	e852                	sd	s4,16(sp)
    50202130:	c01029f3          	rdtime	s3
    50202134:	00001a17          	auipc	s4,0x1
    50202138:	744a0a13          	addi	s4,s4,1860 # 50203878 <sleep_queue>
    5020213c:	000a3403          	ld	s0,0(s4)
    50202140:	00001797          	auipc	a5,0x1
    50202144:	7937b423          	sd	s3,1928(a5) # 502038c8 <time_elapsed>
    50202148:	05440663          	beq	s0,s4,50202194 <check_sleeping+0x6e>
    5020214c:	00001797          	auipc	a5,0x1
    50202150:	7747b783          	ld	a5,1908(a5) # 502038c0 <time_base>
    50202154:	e456                	sd	s5,8(sp)
    50202156:	f426                	sd	s1,40(sp)
    50202158:	02f9d9b3          	divu	s3,s3,a5
    5020215c:	f04a                	sd	s2,32(sp)
    5020215e:	4a89                	li	s5,2
    50202160:	8522                	mv	a0,s0
    50202162:	84a2                	mv	s1,s0
    50202164:	6000                	ld	s0,0(s0)
    50202166:	dbdff0ef          	jal	50201f22 <get_pcb_from_node>
    5020216a:	791c                	ld	a5,48(a0)
    5020216c:	892a                	mv	s2,a0
    5020216e:	8526                	mv	a0,s1
    50202170:	00f9ed63          	bltu	s3,a5,5020218a <check_sleeping+0x64>
    50202174:	d15ff0ef          	jal	50201e88 <do_unblock>
    50202178:	8526                	mv	a0,s1
    5020217a:	03592223          	sw	s5,36(s2)
    5020217e:	00001597          	auipc	a1,0x1
    50202182:	6ea58593          	addi	a1,a1,1770 # 50203868 <ready_queue>
    50202186:	d7fff0ef          	jal	50201f04 <add_node_to_q>
    5020218a:	fd441be3          	bne	s0,s4,50202160 <check_sleeping+0x3a>
    5020218e:	74a2                	ld	s1,40(sp)
    50202190:	7902                	ld	s2,32(sp)
    50202192:	6aa2                	ld	s5,8(sp)
    50202194:	70e2                	ld	ra,56(sp)
    50202196:	7442                	ld	s0,48(sp)
    50202198:	69e2                	ld	s3,24(sp)
    5020219a:	6a42                	ld	s4,16(sp)
    5020219c:	6121                	addi	sp,sp,64
    5020219e:	8082                	ret

00000000502021a0 <handle_syscall>:
    502021a0:	6554                	ld	a3,136(a0)
    502021a2:	10853783          	ld	a5,264(a0)
    502021a6:	00004717          	auipc	a4,0x4
    502021aa:	1ca70713          	addi	a4,a4,458 # 50206370 <syscall>
    502021ae:	068e                	slli	a3,a3,0x3
    502021b0:	1141                	addi	sp,sp,-16
    502021b2:	9736                	add	a4,a4,a3
    502021b4:	e022                	sd	s0,0(sp)
    502021b6:	00073803          	ld	a6,0(a4)
    502021ba:	842a                	mv	s0,a0
    502021bc:	7938                	ld	a4,112(a0)
    502021be:	7534                	ld	a3,104(a0)
    502021c0:	7130                	ld	a2,96(a0)
    502021c2:	6d2c                	ld	a1,88(a0)
    502021c4:	6928                	ld	a0,80(a0)
    502021c6:	e406                	sd	ra,8(sp)
    502021c8:	0791                	addi	a5,a5,4
    502021ca:	10f43423          	sd	a5,264(s0)
    502021ce:	9802                	jalr	a6
    502021d0:	60a2                	ld	ra,8(sp)
    502021d2:	e828                	sd	a0,80(s0)
    502021d4:	6402                	ld	s0,0(sp)
    502021d6:	0141                	addi	sp,sp,16
    502021d8:	8082                	ret

00000000502021da <bios_putstr>:
    502021da:	520007b7          	lui	a5,0x52000
    502021de:	f0078793          	addi	a5,a5,-256 # 51ffff00 <__BSS_END__+0x1df9890>
    502021e2:	639c                	ld	a5,0(a5)
    502021e4:	4701                	li	a4,0
    502021e6:	4681                	li	a3,0
    502021e8:	4601                	li	a2,0
    502021ea:	4581                	li	a1,0
    502021ec:	8782                	jr	a5

00000000502021ee <bios_logging>:
    502021ee:	520007b7          	lui	a5,0x52000
    502021f2:	f2878793          	addi	a5,a5,-216 # 51ffff28 <__BSS_END__+0x1df98b8>
    502021f6:	639c                	ld	a5,0(a5)
    502021f8:	4701                	li	a4,0
    502021fa:	4681                	li	a3,0
    502021fc:	4601                	li	a2,0
    502021fe:	4581                	li	a1,0
    50202200:	8782                	jr	a5

0000000050202202 <_output_wrapper>:
    50202202:	1141                	addi	sp,sp,-16
    50202204:	e406                	sd	ra,8(sp)
    50202206:	c82ff0ef          	jal	50201688 <screen_write>
    5020220a:	60a2                	ld	ra,8(sp)
    5020220c:	0141                	addi	sp,sp,16
    5020220e:	ca8ff06f          	j	502016b6 <screen_reflush>

0000000050202212 <mini_itoa.part.0>:
    50202212:	12055c63          	bgez	a0,5020234a <mini_itoa.part.0+0x138>
    50202216:	03f69313          	slli	t1,a3,0x3f
    5020221a:	03f35893          	srli	a7,t1,0x3f
    5020221e:	12089663          	bnez	a7,5020234a <mini_itoa.part.0+0x138>
    50202222:	40a00533          	neg	a0,a0
    50202226:	4f05                	li	t5,1
    50202228:	0016f893          	andi	a7,a3,1
    5020222c:	06100e93          	li	t4,97
    50202230:	00088463          	beqz	a7,50202238 <mini_itoa.part.0+0x26>
    50202234:	04100e93          	li	t4,65
    50202238:	1582                	slli	a1,a1,0x20
    5020223a:	3ed9                	addiw	t4,t4,-10
    5020223c:	00170893          	addi	a7,a4,1
    50202240:	9181                	srli	a1,a1,0x20
    50202242:	4fa5                	li	t6,9
    50202244:	4e25                	li	t3,9
    50202246:	ce81                	beqz	a3,5020225e <mini_itoa.part.0+0x4c>
    50202248:	a85d                	j	502022fe <mini_itoa.part.0+0xec>
    5020224a:	01d68fbb          	addw	t6,a3,t4
    5020224e:	ea65                	bnez	a2,5020233e <mini_itoa.part.0+0x12c>
    50202250:	4341                	li	t1,16
    50202252:	02654533          	div	a0,a0,t1
    50202256:	fff88fa3          	sb	t6,-1(a7)
    5020225a:	cd11                	beqz	a0,50202276 <mini_itoa.part.0+0x64>
    5020225c:	0885                	addi	a7,a7,1
    5020225e:	02b566b3          	rem	a3,a0,a1
    50202262:	832e                	mv	t1,a1
    50202264:	fede43e3          	blt	t3,a3,5020224a <mini_itoa.part.0+0x38>
    50202268:	0306869b          	addiw	a3,a3,48
    5020226c:	fed88fa3          	sb	a3,-1(a7)
    50202270:	02654533          	div	a0,a0,t1
    50202274:	f565                	bnez	a0,5020225c <mini_itoa.part.0+0x4a>
    50202276:	40e886bb          	subw	a3,a7,a4
    5020227a:	02f6f263          	bgeu	a3,a5,5020229e <mini_itoa.part.0+0x8c>
    5020227e:	fff7861b          	addiw	a2,a5,-1
    50202282:	9e15                	subw	a2,a2,a3
    50202284:	1602                	slli	a2,a2,0x20
    50202286:	9201                	srli	a2,a2,0x20
    50202288:	00160693          	addi	a3,a2,1
    5020228c:	87c6                	mv	a5,a7
    5020228e:	96c6                	add	a3,a3,a7
    50202290:	0785                	addi	a5,a5,1
    50202292:	ff078fa3          	sb	a6,-1(a5)
    50202296:	fed79de3          	bne	a5,a3,50202290 <mini_itoa.part.0+0x7e>
    5020229a:	0885                	addi	a7,a7,1
    5020229c:	98b2                	add	a7,a7,a2
    5020229e:	000f0763          	beqz	t5,502022ac <mini_itoa.part.0+0x9a>
    502022a2:	02d00793          	li	a5,45
    502022a6:	00f88023          	sb	a5,0(a7)
    502022aa:	0885                	addi	a7,a7,1
    502022ac:	40e8853b          	subw	a0,a7,a4
    502022b0:	00088023          	sb	zero,0(a7)
    502022b4:	0015589b          	srliw	a7,a0,0x1
    502022b8:	08088863          	beqz	a7,50202348 <mini_itoa.part.0+0x136>
    502022bc:	fff7081b          	addiw	a6,a4,-1
    502022c0:	98ba                	add	a7,a7,a4
    502022c2:	00a8083b          	addw	a6,a6,a0
    502022c6:	86ba                	mv	a3,a4
    502022c8:	40d807bb          	subw	a5,a6,a3
    502022cc:	1782                	slli	a5,a5,0x20
    502022ce:	9381                	srli	a5,a5,0x20
    502022d0:	97ba                	add	a5,a5,a4
    502022d2:	0007c583          	lbu	a1,0(a5)
    502022d6:	0006c603          	lbu	a2,0(a3)
    502022da:	0685                	addi	a3,a3,1
    502022dc:	feb68fa3          	sb	a1,-1(a3)
    502022e0:	00c78023          	sb	a2,0(a5)
    502022e4:	fed892e3          	bne	a7,a3,502022c8 <mini_itoa.part.0+0xb6>
    502022e8:	8082                	ret
    502022ea:	4e41                	li	t3,16
    502022ec:	0306869b          	addiw	a3,a3,48
    502022f0:	fed88fa3          	sb	a3,-1(a7)
    502022f4:	f9c361e3          	bltu	t1,t3,50202276 <mini_itoa.part.0+0x64>
    502022f8:	03c35533          	divu	a0,t1,t3
    502022fc:	0885                	addi	a7,a7,1
    502022fe:	832a                	mv	t1,a0
    50202300:	8e2e                	mv	t3,a1
    50202302:	02b576b3          	remu	a3,a0,a1
    50202306:	fedff3e3          	bgeu	t6,a3,502022ec <mini_itoa.part.0+0xda>
    5020230a:	c605                	beqz	a2,50202332 <mini_itoa.part.0+0x120>
    5020230c:	01d686bb          	addw	a3,a3,t4
    50202310:	fed88fa3          	sb	a3,-1(a7)
    50202314:	00455313          	srli	t1,a0,0x4
    50202318:	00f37693          	andi	a3,t1,15
    5020231c:	f4030de3          	beqz	t1,50202276 <mini_itoa.part.0+0x64>
    50202320:	0885                	addi	a7,a7,1
    50202322:	fcdff4e3          	bgeu	t6,a3,502022ea <mini_itoa.part.0+0xd8>
    50202326:	01d686bb          	addw	a3,a3,t4
    5020232a:	fed88fa3          	sb	a3,-1(a7)
    5020232e:	851a                	mv	a0,t1
    50202330:	b7d5                	j	50202314 <mini_itoa.part.0+0x102>
    50202332:	0576869b          	addiw	a3,a3,87
    50202336:	fed88fa3          	sb	a3,-1(a7)
    5020233a:	4e41                	li	t3,16
    5020233c:	bf65                	j	502022f4 <mini_itoa.part.0+0xe2>
    5020233e:	0376869b          	addiw	a3,a3,55
    50202342:	fed88fa3          	sb	a3,-1(a7)
    50202346:	b72d                	j	50202270 <mini_itoa.part.0+0x5e>
    50202348:	8082                	ret
    5020234a:	4f01                	li	t5,0
    5020234c:	bdf1                	j	50202228 <mini_itoa.part.0+0x16>

000000005020234e <_vprint>:
    5020234e:	7125                	addi	sp,sp,-416
    50202350:	fece                	sd	s3,376(sp)
    50202352:	ef06                	sd	ra,408(sp)
    50202354:	fad2                	sd	s4,368(sp)
    50202356:	f6d6                	sd	s5,360(sp)
    50202358:	00054783          	lbu	a5,0(a0)
    5020235c:	89b2                	mv	s3,a2
    5020235e:	38078363          	beqz	a5,502026e4 <_vprint+0x396>
    50202362:	03010a13          	addi	s4,sp,48
    50202366:	eb22                	sd	s0,400(sp)
    50202368:	e726                	sd	s1,392(sp)
    5020236a:	f2da                	sd	s6,352(sp)
    5020236c:	eede                	sd	s7,344(sp)
    5020236e:	eae2                	sd	s8,336(sp)
    50202370:	e6e6                	sd	s9,328(sp)
    50202372:	e2ea                	sd	s10,320(sp)
    50202374:	fe6e                	sd	s11,312(sp)
    50202376:	e34a                	sd	s2,384(sp)
    50202378:	842a                	mv	s0,a0
    5020237a:	84d2                	mv	s1,s4
    5020237c:	00150613          	addi	a2,a0,1
    50202380:	0ff00b13          	li	s6,255
    50202384:	02500b93          	li	s7,37
    50202388:	4ca5                	li	s9,9
    5020238a:	02000d13          	li	s10,32
    5020238e:	00001c17          	auipc	s8,0x1
    50202392:	a82c0c13          	addi	s8,s8,-1406 # 50202e10 <__FUNCTION__.0+0x20>
    50202396:	06c00d93          	li	s11,108
    5020239a:	a005                	j	502023ba <_vprint+0x6c>
    5020239c:	00148713          	addi	a4,s1,1
    502023a0:	00f48023          	sb	a5,0(s1)
    502023a4:	000480a3          	sb	zero,1(s1)
    502023a8:	8432                	mv	s0,a2
    502023aa:	41470933          	sub	s2,a4,s4
    502023ae:	84ba                	mv	s1,a4
    502023b0:	00044783          	lbu	a5,0(s0)
    502023b4:	00140613          	addi	a2,s0,1
    502023b8:	c3cd                	beqz	a5,5020245a <_vprint+0x10c>
    502023ba:	41448933          	sub	s2,s1,s4
    502023be:	0019071b          	addiw	a4,s2,1
    502023c2:	00090a9b          	sext.w	s5,s2
    502023c6:	08eb6c63          	bltu	s6,a4,5020245e <_vprint+0x110>
    502023ca:	fd7799e3          	bne	a5,s7,5020239c <_vprint+0x4e>
    502023ce:	00144683          	lbu	a3,1(s0)
    502023d2:	fd06879b          	addiw	a5,a3,-48
    502023d6:	0ff7f793          	zext.b	a5,a5
    502023da:	02fcf563          	bgeu	s9,a5,50202404 <_vprint+0xb6>
    502023de:	0409                	addi	s0,s0,2
    502023e0:	02000813          	li	a6,32
    502023e4:	4781                	li	a5,0
    502023e6:	4601                	li	a2,0
    502023e8:	07b68463          	beq	a3,s11,50202450 <_vprint+0x102>
    502023ec:	caad                	beqz	a3,5020245e <_vprint+0x110>
    502023ee:	fa86871b          	addiw	a4,a3,-88
    502023f2:	0ff77713          	zext.b	a4,a4
    502023f6:	08ed6a63          	bltu	s10,a4,5020248a <_vprint+0x13c>
    502023fa:	070a                	slli	a4,a4,0x2
    502023fc:	9762                	add	a4,a4,s8
    502023fe:	4318                	lw	a4,0(a4)
    50202400:	9762                	add	a4,a4,s8
    50202402:	8702                	jr	a4
    50202404:	03000793          	li	a5,48
    50202408:	02000813          	li	a6,32
    5020240c:	00f69363          	bne	a3,a5,50202412 <_vprint+0xc4>
    50202410:	8836                	mv	a6,a3
    50202412:	00064683          	lbu	a3,0(a2)
    50202416:	c6a1                	beqz	a3,5020245e <_vprint+0x110>
    50202418:	00160413          	addi	s0,a2,1
    5020241c:	4781                	li	a5,0
    5020241e:	4625                	li	a2,9
    50202420:	a829                	j	5020243a <_vprint+0xec>
    50202422:	0027971b          	slliw	a4,a5,0x2
    50202426:	9f3d                	addw	a4,a4,a5
    50202428:	0405                	addi	s0,s0,1
    5020242a:	0017171b          	slliw	a4,a4,0x1
    5020242e:	9f35                	addw	a4,a4,a3
    50202430:	fff44683          	lbu	a3,-1(s0)
    50202434:	fd07079b          	addiw	a5,a4,-48
    50202438:	c29d                	beqz	a3,5020245e <_vprint+0x110>
    5020243a:	fd06871b          	addiw	a4,a3,-48
    5020243e:	0ff77713          	zext.b	a4,a4
    50202442:	fee670e3          	bgeu	a2,a4,50202422 <_vprint+0xd4>
    50202446:	06c00713          	li	a4,108
    5020244a:	4601                	li	a2,0
    5020244c:	fae691e3          	bne	a3,a4,502023ee <_vprint+0xa0>
    50202450:	4605                	li	a2,1
    50202452:	00044683          	lbu	a3,0(s0)
    50202456:	9432                	add	s0,s0,a2
    50202458:	bf51                	j	502023ec <_vprint+0x9e>
    5020245a:	00090a9b          	sext.w	s5,s2
    5020245e:	645a                	ld	s0,400(sp)
    50202460:	64ba                	ld	s1,392(sp)
    50202462:	691a                	ld	s2,384(sp)
    50202464:	7b16                	ld	s6,352(sp)
    50202466:	6bf6                	ld	s7,344(sp)
    50202468:	6c56                	ld	s8,336(sp)
    5020246a:	6cb6                	ld	s9,328(sp)
    5020246c:	6d16                	ld	s10,320(sp)
    5020246e:	7df2                	ld	s11,312(sp)
    50202470:	002a87b3          	add	a5,s5,sp
    50202474:	8552                	mv	a0,s4
    50202476:	02078823          	sb	zero,48(a5)
    5020247a:	9982                	jalr	s3
    5020247c:	60fa                	ld	ra,408(sp)
    5020247e:	79f6                	ld	s3,376(sp)
    50202480:	7a56                	ld	s4,368(sp)
    50202482:	8556                	mv	a0,s5
    50202484:	7ab6                	ld	s5,360(sp)
    50202486:	611d                	addi	sp,sp,416
    50202488:	8082                	ret
    5020248a:	00148793          	addi	a5,s1,1
    5020248e:	00d48023          	sb	a3,0(s1)
    50202492:	000480a3          	sb	zero,1(s1)
    50202496:	41478933          	sub	s2,a5,s4
    5020249a:	84be                	mv	s1,a5
    5020249c:	bf11                	j	502023b0 <_vprint+0x62>
    5020249e:	00858893          	addi	a7,a1,8
    502024a2:	1e061963          	bnez	a2,50202694 <_vprint+0x346>
    502024a6:	0005e503          	lwu	a0,0(a1)
    502024aa:	fa868693          	addi	a3,a3,-88
    502024ae:	0838                	addi	a4,sp,24
    502024b0:	0016b613          	seqz	a2,a3
    502024b4:	45c1                	li	a1,16
    502024b6:	4685                	li	a3,1
    502024b8:	e446                	sd	a7,8(sp)
    502024ba:	e03a                	sd	a4,0(sp)
    502024bc:	d57ff0ef          	jal	50202212 <mini_itoa.part.0>
    502024c0:	02051613          	slli	a2,a0,0x20
    502024c4:	10000793          	li	a5,256
    502024c8:	9201                	srli	a2,a2,0x20
    502024ca:	412787b3          	sub	a5,a5,s2
    502024ce:	6702                	ld	a4,0(sp)
    502024d0:	68a2                	ld	a7,8(sp)
    502024d2:	1af64e63          	blt	a2,a5,5020268e <_vprint+0x340>
    502024d6:	0ff00513          	li	a0,255
    502024da:	4155053b          	subw	a0,a0,s5
    502024de:	02051613          	slli	a2,a0,0x20
    502024e2:	9201                	srli	a2,a2,0x20
    502024e4:	963a                	add	a2,a2,a4
    502024e6:	87a6                	mv	a5,s1
    502024e8:	00074683          	lbu	a3,0(a4)
    502024ec:	0705                	addi	a4,a4,1
    502024ee:	0785                	addi	a5,a5,1
    502024f0:	fed78fa3          	sb	a3,-1(a5)
    502024f4:	fee61ae3          	bne	a2,a4,502024e8 <_vprint+0x19a>
    502024f8:	357d                	addiw	a0,a0,-1
    502024fa:	1502                	slli	a0,a0,0x20
    502024fc:	9101                	srli	a0,a0,0x20
    502024fe:	0485                	addi	s1,s1,1
    50202500:	94aa                	add	s1,s1,a0
    50202502:	41448933          	sub	s2,s1,s4
    50202506:	00048023          	sb	zero,0(s1)
    5020250a:	85c6                	mv	a1,a7
    5020250c:	b555                	j	502023b0 <_vprint+0x62>
    5020250e:	00858893          	addi	a7,a1,8
    50202512:	18061663          	bnez	a2,5020269e <_vprint+0x350>
    50202516:	0005e503          	lwu	a0,0(a1)
    5020251a:	0838                	addi	a4,sp,24
    5020251c:	4601                	li	a2,0
    5020251e:	4685                	li	a3,1
    50202520:	45a9                	li	a1,10
    50202522:	e446                	sd	a7,8(sp)
    50202524:	e03a                	sd	a4,0(sp)
    50202526:	cedff0ef          	jal	50202212 <mini_itoa.part.0>
    5020252a:	02051613          	slli	a2,a0,0x20
    5020252e:	10000793          	li	a5,256
    50202532:	9201                	srli	a2,a2,0x20
    50202534:	412787b3          	sub	a5,a5,s2
    50202538:	6702                	ld	a4,0(sp)
    5020253a:	68a2                	ld	a7,8(sp)
    5020253c:	14f64e63          	blt	a2,a5,50202698 <_vprint+0x34a>
    50202540:	0ff00513          	li	a0,255
    50202544:	4155053b          	subw	a0,a0,s5
    50202548:	02051613          	slli	a2,a0,0x20
    5020254c:	9201                	srli	a2,a2,0x20
    5020254e:	963a                	add	a2,a2,a4
    50202550:	87a6                	mv	a5,s1
    50202552:	00074683          	lbu	a3,0(a4)
    50202556:	0705                	addi	a4,a4,1
    50202558:	0785                	addi	a5,a5,1
    5020255a:	fed78fa3          	sb	a3,-1(a5)
    5020255e:	fec71ae3          	bne	a4,a2,50202552 <_vprint+0x204>
    50202562:	bf59                	j	502024f8 <_vprint+0x1aa>
    50202564:	6198                	ld	a4,0(a1)
    50202566:	00858813          	addi	a6,a1,8
    5020256a:	00074683          	lbu	a3,0(a4)
    5020256e:	14068a63          	beqz	a3,502026c2 <_vprint+0x374>
    50202572:	4681                	li	a3,0
    50202574:	2685                	addiw	a3,a3,1
    50202576:	02069613          	slli	a2,a3,0x20
    5020257a:	9201                	srli	a2,a2,0x20
    5020257c:	00c705b3          	add	a1,a4,a2
    50202580:	0005c583          	lbu	a1,0(a1)
    50202584:	f9e5                	bnez	a1,50202574 <_vprint+0x226>
    50202586:	10000593          	li	a1,256
    5020258a:	412585b3          	sub	a1,a1,s2
    5020258e:	10b64e63          	blt	a2,a1,502026aa <_vprint+0x35c>
    50202592:	0ff00893          	li	a7,255
    50202596:	415888bb          	subw	a7,a7,s5
    5020259a:	02089513          	slli	a0,a7,0x20
    5020259e:	9101                	srli	a0,a0,0x20
    502025a0:	8626                	mv	a2,s1
    502025a2:	9526                	add	a0,a0,s1
    502025a4:	00074583          	lbu	a1,0(a4)
    502025a8:	0605                	addi	a2,a2,1
    502025aa:	0705                	addi	a4,a4,1
    502025ac:	feb60fa3          	sb	a1,-1(a2)
    502025b0:	fea61ae3          	bne	a2,a0,502025a4 <_vprint+0x256>
    502025b4:	38fd                	addiw	a7,a7,-1
    502025b6:	1882                	slli	a7,a7,0x20
    502025b8:	0208d893          	srli	a7,a7,0x20
    502025bc:	0485                	addi	s1,s1,1
    502025be:	94c6                	add	s1,s1,a7
    502025c0:	00048023          	sb	zero,0(s1)
    502025c4:	85c2                	mv	a1,a6
    502025c6:	41448933          	sub	s2,s1,s4
    502025ca:	def6f3e3          	bgeu	a3,a5,502023b0 <_vprint+0x62>
    502025ce:	9f95                	subw	a5,a5,a3
    502025d0:	02079693          	slli	a3,a5,0x20
    502025d4:	10000713          	li	a4,256
    502025d8:	9281                	srli	a3,a3,0x20
    502025da:	41270733          	sub	a4,a4,s2
    502025de:	00e6cf63          	blt	a3,a4,502025fc <_vprint+0x2ae>
    502025e2:	00090a9b          	sext.w	s5,s2
    502025e6:	0ff00793          	li	a5,255
    502025ea:	02fa8963          	beq	s5,a5,5020261c <_vprint+0x2ce>
    502025ee:	0ff00793          	li	a5,255
    502025f2:	415787bb          	subw	a5,a5,s5
    502025f6:	02079693          	slli	a3,a5,0x20
    502025fa:	9281                	srli	a3,a3,0x20
    502025fc:	96a6                	add	a3,a3,s1
    502025fe:	8726                	mv	a4,s1
    50202600:	02000613          	li	a2,32
    50202604:	00c70023          	sb	a2,0(a4)
    50202608:	0705                	addi	a4,a4,1
    5020260a:	fee69de3          	bne	a3,a4,50202604 <_vprint+0x2b6>
    5020260e:	37fd                	addiw	a5,a5,-1
    50202610:	1782                	slli	a5,a5,0x20
    50202612:	9381                	srli	a5,a5,0x20
    50202614:	0485                	addi	s1,s1,1
    50202616:	94be                	add	s1,s1,a5
    50202618:	41448933          	sub	s2,s1,s4
    5020261c:	00048023          	sb	zero,0(s1)
    50202620:	85c2                	mv	a1,a6
    50202622:	b379                	j	502023b0 <_vprint+0x62>
    50202624:	00858893          	addi	a7,a1,8
    50202628:	ee3d                	bnez	a2,502026a6 <_vprint+0x358>
    5020262a:	4188                	lw	a0,0(a1)
    5020262c:	0838                	addi	a4,sp,24
    5020262e:	4601                	li	a2,0
    50202630:	4681                	li	a3,0
    50202632:	45a9                	li	a1,10
    50202634:	e446                	sd	a7,8(sp)
    50202636:	e03a                	sd	a4,0(sp)
    50202638:	bdbff0ef          	jal	50202212 <mini_itoa.part.0>
    5020263c:	02051613          	slli	a2,a0,0x20
    50202640:	10000793          	li	a5,256
    50202644:	9201                	srli	a2,a2,0x20
    50202646:	412787b3          	sub	a5,a5,s2
    5020264a:	6702                	ld	a4,0(sp)
    5020264c:	68a2                	ld	a7,8(sp)
    5020264e:	04f64a63          	blt	a2,a5,502026a2 <_vprint+0x354>
    50202652:	0ff00513          	li	a0,255
    50202656:	4155053b          	subw	a0,a0,s5
    5020265a:	02051613          	slli	a2,a0,0x20
    5020265e:	9201                	srli	a2,a2,0x20
    50202660:	963a                	add	a2,a2,a4
    50202662:	87a6                	mv	a5,s1
    50202664:	00074683          	lbu	a3,0(a4)
    50202668:	0705                	addi	a4,a4,1
    5020266a:	0785                	addi	a5,a5,1
    5020266c:	fed78fa3          	sb	a3,-1(a5)
    50202670:	fec71ae3          	bne	a4,a2,50202664 <_vprint+0x316>
    50202674:	b551                	j	502024f8 <_vprint+0x1aa>
    50202676:	4198                	lw	a4,0(a1)
    50202678:	00148793          	addi	a5,s1,1
    5020267c:	000480a3          	sb	zero,1(s1)
    50202680:	00e48023          	sb	a4,0(s1)
    50202684:	05a1                	addi	a1,a1,8
    50202686:	41478933          	sub	s2,a5,s4
    5020268a:	84be                	mv	s1,a5
    5020268c:	b315                	j	502023b0 <_vprint+0x62>
    5020268e:	e4051be3          	bnez	a0,502024e4 <_vprint+0x196>
    50202692:	bd95                	j	50202506 <_vprint+0x1b8>
    50202694:	6188                	ld	a0,0(a1)
    50202696:	bd11                	j	502024aa <_vprint+0x15c>
    50202698:	ea051be3          	bnez	a0,5020254e <_vprint+0x200>
    5020269c:	b5ad                	j	50202506 <_vprint+0x1b8>
    5020269e:	6188                	ld	a0,0(a1)
    502026a0:	bdad                	j	5020251a <_vprint+0x1cc>
    502026a2:	fd5d                	bnez	a0,50202660 <_vprint+0x312>
    502026a4:	b58d                	j	50202506 <_vprint+0x1b8>
    502026a6:	6188                	ld	a0,0(a1)
    502026a8:	b751                	j	5020262c <_vprint+0x2de>
    502026aa:	88b6                	mv	a7,a3
    502026ac:	ee0697e3          	bnez	a3,5020259a <_vprint+0x24c>
    502026b0:	00048023          	sb	zero,0(s1)
    502026b4:	d7b5                	beqz	a5,50202620 <_vprint+0x2d2>
    502026b6:	02079693          	slli	a3,a5,0x20
    502026ba:	9281                	srli	a3,a3,0x20
    502026bc:	f4b6c0e3          	blt	a3,a1,502025fc <_vprint+0x2ae>
    502026c0:	b73d                	j	502025ee <_vprint+0x2a0>
    502026c2:	0ff00893          	li	a7,255
    502026c6:	0328c363          	blt	a7,s2,502026ec <_vprint+0x39e>
    502026ca:	00048023          	sb	zero,0(s1)
    502026ce:	dba9                	beqz	a5,50202620 <_vprint+0x2d2>
    502026d0:	10000713          	li	a4,256
    502026d4:	02079693          	slli	a3,a5,0x20
    502026d8:	41270733          	sub	a4,a4,s2
    502026dc:	9281                	srli	a3,a3,0x20
    502026de:	f0e6cfe3          	blt	a3,a4,502025fc <_vprint+0x2ae>
    502026e2:	b731                	j	502025ee <_vprint+0x2a0>
    502026e4:	4a81                	li	s5,0
    502026e6:	03010a13          	addi	s4,sp,48
    502026ea:	b359                	j	50202470 <_vprint+0x122>
    502026ec:	415888bb          	subw	a7,a7,s5
    502026f0:	4681                	li	a3,0
    502026f2:	b565                	j	5020259a <_vprint+0x24c>

00000000502026f4 <vprintk>:
    502026f4:	00000617          	auipc	a2,0x0
    502026f8:	b0e60613          	addi	a2,a2,-1266 # 50202202 <_output_wrapper>
    502026fc:	b989                	j	5020234e <_vprint>

00000000502026fe <printk>:
    502026fe:	711d                	addi	sp,sp,-96
    50202700:	02810313          	addi	t1,sp,40
    50202704:	f42e                	sd	a1,40(sp)
    50202706:	f832                	sd	a2,48(sp)
    50202708:	859a                	mv	a1,t1
    5020270a:	00000617          	auipc	a2,0x0
    5020270e:	af860613          	addi	a2,a2,-1288 # 50202202 <_output_wrapper>
    50202712:	ec06                	sd	ra,24(sp)
    50202714:	fc36                	sd	a3,56(sp)
    50202716:	e0ba                	sd	a4,64(sp)
    50202718:	e4be                	sd	a5,72(sp)
    5020271a:	e8c2                	sd	a6,80(sp)
    5020271c:	ecc6                	sd	a7,88(sp)
    5020271e:	e41a                	sd	t1,8(sp)
    50202720:	c2fff0ef          	jal	5020234e <_vprint>
    50202724:	60e2                	ld	ra,24(sp)
    50202726:	6125                	addi	sp,sp,96
    50202728:	8082                	ret

000000005020272a <printv>:
    5020272a:	711d                	addi	sp,sp,-96
    5020272c:	02810313          	addi	t1,sp,40
    50202730:	f42e                	sd	a1,40(sp)
    50202732:	f832                	sd	a2,48(sp)
    50202734:	859a                	mv	a1,t1
    50202736:	00000617          	auipc	a2,0x0
    5020273a:	aa460613          	addi	a2,a2,-1372 # 502021da <bios_putstr>
    5020273e:	ec06                	sd	ra,24(sp)
    50202740:	fc36                	sd	a3,56(sp)
    50202742:	e0ba                	sd	a4,64(sp)
    50202744:	e4be                	sd	a5,72(sp)
    50202746:	e8c2                	sd	a6,80(sp)
    50202748:	ecc6                	sd	a7,88(sp)
    5020274a:	e41a                	sd	t1,8(sp)
    5020274c:	c03ff0ef          	jal	5020234e <_vprint>
    50202750:	60e2                	ld	ra,24(sp)
    50202752:	6125                	addi	sp,sp,96
    50202754:	8082                	ret

0000000050202756 <printl>:
    50202756:	711d                	addi	sp,sp,-96
    50202758:	02810313          	addi	t1,sp,40
    5020275c:	f42e                	sd	a1,40(sp)
    5020275e:	f832                	sd	a2,48(sp)
    50202760:	859a                	mv	a1,t1
    50202762:	00000617          	auipc	a2,0x0
    50202766:	a8c60613          	addi	a2,a2,-1396 # 502021ee <bios_logging>
    5020276a:	ec06                	sd	ra,24(sp)
    5020276c:	fc36                	sd	a3,56(sp)
    5020276e:	e0ba                	sd	a4,64(sp)
    50202770:	e4be                	sd	a5,72(sp)
    50202772:	e8c2                	sd	a6,80(sp)
    50202774:	ecc6                	sd	a7,88(sp)
    50202776:	e41a                	sd	t1,8(sp)
    50202778:	bd7ff0ef          	jal	5020234e <_vprint>
    5020277c:	60e2                	ld	ra,24(sp)
    5020277e:	6125                	addi	sp,sp,96
    50202780:	8082                	ret

0000000050202782 <memcpy>:
    50202782:	ce01                	beqz	a2,5020279a <memcpy+0x18>
    50202784:	1602                	slli	a2,a2,0x20
    50202786:	9201                	srli	a2,a2,0x20
    50202788:	962a                	add	a2,a2,a0
    5020278a:	0005c783          	lbu	a5,0(a1)
    5020278e:	0505                	addi	a0,a0,1
    50202790:	0585                	addi	a1,a1,1
    50202792:	fef50fa3          	sb	a5,-1(a0)
    50202796:	fec51ae3          	bne	a0,a2,5020278a <memcpy+0x8>
    5020279a:	8082                	ret

000000005020279c <memset>:
    5020279c:	ca09                	beqz	a2,502027ae <memset+0x12>
    5020279e:	1602                	slli	a2,a2,0x20
    502027a0:	9201                	srli	a2,a2,0x20
    502027a2:	962a                	add	a2,a2,a0
    502027a4:	0505                	addi	a0,a0,1
    502027a6:	feb50fa3          	sb	a1,-1(a0)
    502027aa:	fec51de3          	bne	a0,a2,502027a4 <memset+0x8>
    502027ae:	8082                	ret

00000000502027b0 <bzero>:
    502027b0:	c989                	beqz	a1,502027c2 <bzero+0x12>
    502027b2:	1582                	slli	a1,a1,0x20
    502027b4:	9181                	srli	a1,a1,0x20
    502027b6:	95aa                	add	a1,a1,a0
    502027b8:	0505                	addi	a0,a0,1
    502027ba:	fe050fa3          	sb	zero,-1(a0)
    502027be:	feb51de3          	bne	a0,a1,502027b8 <bzero+0x8>
    502027c2:	8082                	ret

00000000502027c4 <strlen>:
    502027c4:	00054783          	lbu	a5,0(a0)
    502027c8:	cb99                	beqz	a5,502027de <strlen+0x1a>
    502027ca:	00150793          	addi	a5,a0,1
    502027ce:	86be                	mv	a3,a5
    502027d0:	0007c703          	lbu	a4,0(a5)
    502027d4:	0785                	addi	a5,a5,1
    502027d6:	ff65                	bnez	a4,502027ce <strlen+0xa>
    502027d8:	40a6853b          	subw	a0,a3,a0
    502027dc:	8082                	ret
    502027de:	4501                	li	a0,0
    502027e0:	8082                	ret

00000000502027e2 <strcmp>:
    502027e2:	00054703          	lbu	a4,0(a0)
    502027e6:	eb01                	bnez	a4,502027f6 <strcmp+0x14>
    502027e8:	a025                	j	50202810 <strcmp+0x2e>
    502027ea:	00e79b63          	bne	a5,a4,50202800 <strcmp+0x1e>
    502027ee:	00054703          	lbu	a4,0(a0)
    502027f2:	cb11                	beqz	a4,50202806 <strcmp+0x24>
    502027f4:	0585                	addi	a1,a1,1
    502027f6:	0005c783          	lbu	a5,0(a1)
    502027fa:	0505                	addi	a0,a0,1
    502027fc:	f7fd                	bnez	a5,502027ea <strcmp+0x8>
    502027fe:	2701                	sext.w	a4,a4
    50202800:	40f7053b          	subw	a0,a4,a5
    50202804:	8082                	ret
    50202806:	0015c783          	lbu	a5,1(a1)
    5020280a:	40f7053b          	subw	a0,a4,a5
    5020280e:	8082                	ret
    50202810:	0005c783          	lbu	a5,0(a1)
    50202814:	b7f5                	j	50202800 <strcmp+0x1e>

0000000050202816 <strncmp>:
    50202816:	c21d                	beqz	a2,5020283c <strncmp+0x26>
    50202818:	1602                	slli	a2,a2,0x20
    5020281a:	9201                	srli	a2,a2,0x20
    5020281c:	962a                	add	a2,a2,a0
    5020281e:	a031                	j	5020282a <strncmp+0x14>
    50202820:	0585                	addi	a1,a1,1
    50202822:	00e79f63          	bne	a5,a4,50202840 <strncmp+0x2a>
    50202826:	00c50b63          	beq	a0,a2,5020283c <strncmp+0x26>
    5020282a:	00054783          	lbu	a5,0(a0)
    5020282e:	0005c703          	lbu	a4,0(a1)
    50202832:	0505                	addi	a0,a0,1
    50202834:	f7f5                	bnez	a5,50202820 <strncmp+0xa>
    50202836:	4501                	li	a0,0
    50202838:	9d19                	subw	a0,a0,a4
    5020283a:	8082                	ret
    5020283c:	4501                	li	a0,0
    5020283e:	8082                	ret
    50202840:	0007851b          	sext.w	a0,a5
    50202844:	9d19                	subw	a0,a0,a4
    50202846:	8082                	ret

0000000050202848 <strcpy>:
    50202848:	0005c783          	lbu	a5,0(a1)
    5020284c:	872a                	mv	a4,a0
    5020284e:	cb81                	beqz	a5,5020285e <strcpy+0x16>
    50202850:	0585                	addi	a1,a1,1
    50202852:	00f70023          	sb	a5,0(a4)
    50202856:	0005c783          	lbu	a5,0(a1)
    5020285a:	0705                	addi	a4,a4,1
    5020285c:	fbf5                	bnez	a5,50202850 <strcpy+0x8>
    5020285e:	00070023          	sb	zero,0(a4)
    50202862:	8082                	ret

0000000050202864 <strncpy>:
    50202864:	0005c683          	lbu	a3,0(a1)
    50202868:	88b2                	mv	a7,a2
    5020286a:	87aa                	mv	a5,a0
    5020286c:	c685                	beqz	a3,50202894 <strncpy+0x30>
    5020286e:	fff6081b          	addiw	a6,a2,-1
    50202872:	0105083b          	addw	a6,a0,a6
    50202876:	9e29                	addw	a2,a2,a0
    50202878:	a039                	j	50202886 <strncpy+0x22>
    5020287a:	00d78023          	sb	a3,0(a5)
    5020287e:	0005c683          	lbu	a3,0(a1)
    50202882:	0785                	addi	a5,a5,1
    50202884:	ca81                	beqz	a3,50202894 <strncpy+0x30>
    50202886:	40f6073b          	subw	a4,a2,a5
    5020288a:	0585                	addi	a1,a1,1
    5020288c:	40f808bb          	subw	a7,a6,a5
    50202890:	fee045e3          	bgtz	a4,5020287a <strncpy+0x16>
    50202894:	02089713          	slli	a4,a7,0x20
    50202898:	9301                	srli	a4,a4,0x20
    5020289a:	973e                	add	a4,a4,a5
    5020289c:	01105863          	blez	a7,502028ac <strncpy+0x48>
    502028a0:	0785                	addi	a5,a5,1
    502028a2:	fe078fa3          	sb	zero,-1(a5)
    502028a6:	fef71de3          	bne	a4,a5,502028a0 <strncpy+0x3c>
    502028aa:	8082                	ret
    502028ac:	8082                	ret

00000000502028ae <strcat>:
    502028ae:	00054783          	lbu	a5,0(a0)
    502028b2:	c39d                	beqz	a5,502028d8 <strcat+0x2a>
    502028b4:	87aa                	mv	a5,a0
    502028b6:	0017c703          	lbu	a4,1(a5)
    502028ba:	0785                	addi	a5,a5,1
    502028bc:	ff6d                	bnez	a4,502028b6 <strcat+0x8>
    502028be:	0005c703          	lbu	a4,0(a1)
    502028c2:	cb01                	beqz	a4,502028d2 <strcat+0x24>
    502028c4:	0785                	addi	a5,a5,1
    502028c6:	0585                	addi	a1,a1,1
    502028c8:	fee78fa3          	sb	a4,-1(a5)
    502028cc:	0005c703          	lbu	a4,0(a1)
    502028d0:	fb75                	bnez	a4,502028c4 <strcat+0x16>
    502028d2:	00078023          	sb	zero,0(a5)
    502028d6:	8082                	ret
    502028d8:	87aa                	mv	a5,a0
    502028da:	bfcd                	j	502028cc <strcat+0x1e>
