
build/main:     file format elf64-littleriscv


Disassembly of section .text:

0000000050201000 <_start>:
    50201000:	10401073          	csrw	sie,zero
    50201004:	14401073          	csrw	sip,zero
    50201008:	00001297          	auipc	t0,0x1
    5020100c:	88028293          	addi	t0,t0,-1920 # 50201888 <buf>
    50201010:	00001317          	auipc	t1,0x1
    50201014:	8b030313          	addi	t1,t1,-1872 # 502018c0 <tasks>

0000000050201018 <clear>:
    50201018:	0002a023          	sw	zero,0(t0)
    5020101c:	0291                	addi	t0,t0,4
    5020101e:	fe62ede3          	bltu	t0,t1,50201018 <clear>

0000000050201022 <setup_C>:
    50201022:	50500137          	lui	sp,0x50500
    50201026:	00c0006f          	j	50201032 <main>

000000005020102a <loop>:
    5020102a:	10500073          	wfi
    5020102e:	bff5                	j	5020102a <loop>
    50201030:	0001                	nop

0000000050201032 <main>:
    50201032:	7159                	addi	sp,sp,-112
    50201034:	00001797          	auipc	a5,0x1
    50201038:	85478793          	addi	a5,a5,-1964 # 50201888 <buf>
    5020103c:	f486                	sd	ra,104(sp)
    5020103e:	f0a2                	sd	s0,96(sp)
    50201040:	eca6                	sd	s1,88(sp)
    50201042:	e8ca                	sd	s2,80(sp)
    50201044:	e4ce                	sd	s3,72(sp)
    50201046:	e0d2                	sd	s4,64(sp)
    50201048:	fc56                	sd	s5,56(sp)
    5020104a:	873e                	mv	a4,a5
    5020104c:	00001617          	auipc	a2,0x1
    50201050:	86e60613          	addi	a2,a2,-1938 # 502018ba <buf+0x32>
    50201054:	a019                	j	5020105a <main+0x28>
    50201056:	12c70363          	beq	a4,a2,5020117c <main+0x14a>
    5020105a:	00074683          	lbu	a3,0(a4)
    5020105e:	0705                	addi	a4,a4,1
    50201060:	dafd                	beqz	a3,50201056 <main+0x24>
    50201062:	06600513          	li	a0,102
    50201066:	520005b7          	lui	a1,0x52000
    5020106a:	00000e17          	auipc	t3,0x0
    5020106e:	140e0e13          	addi	t3,t3,320 # 502011aa <port_write>
    50201072:	00000317          	auipc	t1,0x0
    50201076:	12430313          	addi	t1,t1,292 # 50201196 <port_write_ch>
    5020107a:	00000897          	auipc	a7,0x0
    5020107e:	14488893          	addi	a7,a7,324 # 502011be <port_read_ch>
    50201082:	00000817          	auipc	a6,0x0
    50201086:	15e80813          	addi	a6,a6,350 # 502011e0 <sd_read>
    5020108a:	f1c5b023          	sd	t3,-256(a1) # 51ffff00 <tasks+0x1dfe640>
    5020108e:	f065b423          	sd	t1,-248(a1)
    50201092:	f115b823          	sd	a7,-240(a1)
    50201096:	f105bc23          	sd	a6,-232(a1)
    5020109a:	00000717          	auipc	a4,0x0
    5020109e:	51670713          	addi	a4,a4,1302 # 502015b0 <strcat+0x44>
    502010a2:	00000697          	auipc	a3,0x0
    502010a6:	7e26a683          	lw	a3,2018(a3) # 50201884 <version>
    502010aa:	670c                	ld	a1,8(a4)
    502010ac:	6b10                	ld	a2,16(a4)
    502010ae:	00a10423          	sb	a0,8(sp) # 50500008 <tasks+0x2fe748>
    502010b2:	6308                	ld	a0,0(a4)
    502010b4:	00000717          	auipc	a4,0x0
    502010b8:	51475703          	lhu	a4,1300(a4) # 502015c8 <strcat+0x5c>
    502010bc:	0306869b          	addiw	a3,a3,48
    502010c0:	e82a                	sd	a0,16(sp)
    502010c2:	ec2e                	sd	a1,24(sp)
    502010c4:	f032                	sd	a2,32(sp)
    502010c6:	02e11423          	sh	a4,40(sp)
    502010ca:	00d104a3          	sb	a3,9(sp)
    502010ce:	0818                	addi	a4,sp,16
    502010d0:	00000517          	auipc	a0,0x0
    502010d4:	7d250513          	addi	a0,a0,2002 # 502018a2 <buf+0x1a>
    502010d8:	4581                	li	a1,0
    502010da:	05f00613          	li	a2,95
    502010de:	00074683          	lbu	a3,0(a4)
    502010e2:	0705                	addi	a4,a4,1
    502010e4:	00d78023          	sb	a3,0(a5)
    502010e8:	00c69963          	bne	a3,a2,502010fa <main+0xc8>
    502010ec:	002586b3          	add	a3,a1,sp
    502010f0:	0086c683          	lbu	a3,8(a3)
    502010f4:	2585                	addiw	a1,a1,1
    502010f6:	00d78023          	sb	a3,0(a5)
    502010fa:	0785                	addi	a5,a5,1
    502010fc:	fea791e3          	bne	a5,a0,502010de <main+0xac>
    50201100:	00000517          	auipc	a0,0x0
    50201104:	4a050513          	addi	a0,a0,1184 # 502015a0 <strcat+0x34>
    50201108:	07a000ef          	jal	50201182 <bios_putstr>
    5020110c:	00000517          	auipc	a0,0x0
    50201110:	77c50513          	addi	a0,a0,1916 # 50201888 <buf>
    50201114:	52000937          	lui	s2,0x52000
    50201118:	52000a37          	lui	s4,0x52000
    5020111c:	066000ef          	jal	50201182 <bios_putstr>
    50201120:	f1090913          	addi	s2,s2,-240 # 51ffff10 <tasks+0x1dfe650>
    50201124:	f08a0a13          	addi	s4,s4,-248 # 51ffff08 <tasks+0x1dfe648>
    50201128:	59fd                	li	s3,-1
    5020112a:	4ac1                	li	s5,16
    5020112c:	00093783          	ld	a5,0(s2)
    50201130:	4701                	li	a4,0
    50201132:	4681                	li	a3,0
    50201134:	4601                	li	a2,0
    50201136:	4581                	li	a1,0
    50201138:	4501                	li	a0,0
    5020113a:	9782                	jalr	a5
    5020113c:	0005049b          	sext.w	s1,a0
    50201140:	842a                	mv	s0,a0
    50201142:	ff3485e3          	beq	s1,s3,5020112c <main+0xfa>
    50201146:	000a3783          	ld	a5,0(s4)
    5020114a:	4701                	li	a4,0
    5020114c:	4681                	li	a3,0
    5020114e:	4601                	li	a2,0
    50201150:	4581                	li	a1,0
    50201152:	0ff4f513          	zext.b	a0,s1
    50201156:	fd04041b          	addiw	s0,s0,-48
    5020115a:	9782                	jalr	a5
    5020115c:	fc8ae8e3          	bltu	s5,s0,5020112c <main+0xfa>
    50201160:	000a3783          	ld	a5,0(s4)
    50201164:	4701                	li	a4,0
    50201166:	4681                	li	a3,0
    50201168:	4601                	li	a2,0
    5020116a:	4581                	li	a1,0
    5020116c:	4529                	li	a0,10
    5020116e:	9782                	jalr	a5
    50201170:	fd04851b          	addiw	a0,s1,-48
    50201174:	0bc000ef          	jal	50201230 <load_task_img>
    50201178:	9502                	jalr	a0
    5020117a:	bf4d                	j	5020112c <main+0xfa>
    5020117c:	07400513          	li	a0,116
    50201180:	b5dd                	j	50201066 <main+0x34>

0000000050201182 <bios_putstr>:
    50201182:	520007b7          	lui	a5,0x52000
    50201186:	f0078793          	addi	a5,a5,-256 # 51ffff00 <tasks+0x1dfe640>
    5020118a:	639c                	ld	a5,0(a5)
    5020118c:	4701                	li	a4,0
    5020118e:	4681                	li	a3,0
    50201190:	4601                	li	a2,0
    50201192:	4581                	li	a1,0
    50201194:	8782                	jr	a5

0000000050201196 <port_write_ch>:
    50201196:	50150337          	lui	t1,0x50150
    5020119a:	4885                	li	a7,1
    5020119c:	4801                	li	a6,0
    5020119e:	4781                	li	a5,0
    502011a0:	4701                	li	a4,0
    502011a2:	4681                	li	a3,0
    502011a4:	4601                	li	a2,0
    502011a6:	4581                	li	a1,0
    502011a8:	8302                	jr	t1

00000000502011aa <port_write>:
    502011aa:	50150337          	lui	t1,0x50150
    502011ae:	48a5                	li	a7,9
    502011b0:	4801                	li	a6,0
    502011b2:	4781                	li	a5,0
    502011b4:	4701                	li	a4,0
    502011b6:	4681                	li	a3,0
    502011b8:	4601                	li	a2,0
    502011ba:	4581                	li	a1,0
    502011bc:	8302                	jr	t1

00000000502011be <port_read_ch>:
    502011be:	1141                	addi	sp,sp,-16
    502011c0:	e406                	sd	ra,8(sp)
    502011c2:	50150337          	lui	t1,0x50150
    502011c6:	4889                	li	a7,2
    502011c8:	4801                	li	a6,0
    502011ca:	4781                	li	a5,0
    502011cc:	4701                	li	a4,0
    502011ce:	4681                	li	a3,0
    502011d0:	4601                	li	a2,0
    502011d2:	4581                	li	a1,0
    502011d4:	4501                	li	a0,0
    502011d6:	9302                	jalr	t1
    502011d8:	60a2                	ld	ra,8(sp)
    502011da:	2501                	sext.w	a0,a0
    502011dc:	0141                	addi	sp,sp,16
    502011de:	8082                	ret

00000000502011e0 <sd_read>:
    502011e0:	1141                	addi	sp,sp,-16
    502011e2:	1502                	slli	a0,a0,0x20
    502011e4:	1582                	slli	a1,a1,0x20
    502011e6:	1602                	slli	a2,a2,0x20
    502011e8:	e406                	sd	ra,8(sp)
    502011ea:	9101                	srli	a0,a0,0x20
    502011ec:	9181                	srli	a1,a1,0x20
    502011ee:	9201                	srli	a2,a2,0x20
    502011f0:	50150337          	lui	t1,0x50150
    502011f4:	48ad                	li	a7,11
    502011f6:	4801                	li	a6,0
    502011f8:	4781                	li	a5,0
    502011fa:	4701                	li	a4,0
    502011fc:	4681                	li	a3,0
    502011fe:	9302                	jalr	t1
    50201200:	60a2                	ld	ra,8(sp)
    50201202:	2501                	sext.w	a0,a0
    50201204:	0141                	addi	sp,sp,16
    50201206:	8082                	ret

0000000050201208 <sd_write>:
    50201208:	1141                	addi	sp,sp,-16
    5020120a:	1502                	slli	a0,a0,0x20
    5020120c:	1582                	slli	a1,a1,0x20
    5020120e:	1602                	slli	a2,a2,0x20
    50201210:	e406                	sd	ra,8(sp)
    50201212:	9101                	srli	a0,a0,0x20
    50201214:	9181                	srli	a1,a1,0x20
    50201216:	9201                	srli	a2,a2,0x20
    50201218:	50150337          	lui	t1,0x50150
    5020121c:	48a9                	li	a7,10
    5020121e:	4801                	li	a6,0
    50201220:	4781                	li	a5,0
    50201222:	4701                	li	a4,0
    50201224:	4681                	li	a3,0
    50201226:	9302                	jalr	t1
    50201228:	60a2                	ld	ra,8(sp)
    5020122a:	2501                	sext.w	a0,a0
    5020122c:	0141                	addi	sp,sp,16
    5020122e:	8082                	ret

0000000050201230 <load_task_img>:
    50201230:	00000797          	auipc	a5,0x0
    50201234:	3d078793          	addi	a5,a5,976 # 50201600 <strcat+0x94>
    50201238:	6394                	ld	a3,0(a5)
    5020123a:	6798                	ld	a4,8(a5)
    5020123c:	00000797          	auipc	a5,0x0
    50201240:	3d47a783          	lw	a5,980(a5) # 50201610 <strcat+0xa4>
    50201244:	7159                	addi	sp,sp,-112
    50201246:	e4ce                	sd	s3,72(sp)
    50201248:	d43e                	sw	a5,40(sp)
    5020124a:	00000797          	auipc	a5,0x0
    5020124e:	3ca7c783          	lbu	a5,970(a5) # 50201614 <strcat+0xa8>
    50201252:	fc56                	sd	s5,56(sp)
    50201254:	520009b7          	lui	s3,0x52000
    50201258:	03050a9b          	addiw	s5,a0,48
    5020125c:	f0a2                	sd	s0,96(sp)
    5020125e:	eca6                	sd	s1,88(sp)
    50201260:	e8ca                	sd	s2,80(sp)
    50201262:	e0d2                	sd	s4,64(sp)
    50201264:	f486                	sd	ra,104(sp)
    50201266:	f85a                	sd	s6,48(sp)
    50201268:	ec36                	sd	a3,24(sp)
    5020126a:	f03a                	sd	a4,32(sp)
    5020126c:	84aa                	mv	s1,a0
    5020126e:	02f10623          	sb	a5,44(sp)
    50201272:	0ffafa93          	zext.b	s5,s5
    50201276:	01810913          	addi	s2,sp,24
    5020127a:	f0898993          	addi	s3,s3,-248 # 51ffff08 <tasks+0x1dfe648>
    5020127e:	4401                	li	s0,0
    50201280:	05800a13          	li	s4,88
    50201284:	a021                	j	5020128c <load_task_img+0x5c>
    50201286:	9782                	jalr	a5
    50201288:	2405                	addiw	s0,s0,1
    5020128a:	0905                	addi	s2,s2,1
    5020128c:	0828                	addi	a0,sp,24
    5020128e:	1f4000ef          	jal	50201482 <strlen>
    50201292:	4701                	li	a4,0
    50201294:	4681                	li	a3,0
    50201296:	4601                	li	a2,0
    50201298:	4581                	li	a1,0
    5020129a:	00a45f63          	bge	s0,a0,502012b8 <load_task_img+0x88>
    5020129e:	00094503          	lbu	a0,0(s2)
    502012a2:	0009b783          	ld	a5,0(s3)
    502012a6:	ff4510e3          	bne	a0,s4,50201286 <load_task_img+0x56>
    502012aa:	4701                	li	a4,0
    502012ac:	4681                	li	a3,0
    502012ae:	4601                	li	a2,0
    502012b0:	4581                	li	a1,0
    502012b2:	8556                	mv	a0,s5
    502012b4:	9782                	jalr	a5
    502012b6:	bfc9                	j	50201288 <load_task_img+0x58>
    502012b8:	01049913          	slli	s2,s1,0x10
    502012bc:	51ff07b7          	lui	a5,0x51ff0
    502012c0:	00f9093b          	addw	s2,s2,a5
    502012c4:	05b00513          	li	a0,91
    502012c8:	00000417          	auipc	s0,0x0
    502012cc:	30840413          	addi	s0,s0,776 # 502015d0 <strcat+0x64>
    502012d0:	00000997          	auipc	s3,0x0
    502012d4:	30f98993          	addi	s3,s3,783 # 502015df <strcat+0x73>
    502012d8:	0405                	addi	s0,s0,1
    502012da:	ebdff0ef          	jal	50201196 <port_write_ch>
    502012de:	00044503          	lbu	a0,0(s0)
    502012e2:	ff341be3          	bne	s0,s3,502012d8 <load_task_img+0xa8>
    502012e6:	4471                	li	s0,28
    502012e8:	00000a17          	auipc	s4,0x0
    502012ec:	330a0a13          	addi	s4,s4,816 # 50201618 <H.0>
    502012f0:	59f1                	li	s3,-4
    502012f2:	008957bb          	srlw	a5,s2,s0
    502012f6:	8bbd                	andi	a5,a5,15
    502012f8:	97d2                	add	a5,a5,s4
    502012fa:	0007c503          	lbu	a0,0(a5) # 51ff0000 <tasks+0x1dee740>
    502012fe:	3471                	addiw	s0,s0,-4
    50201300:	e97ff0ef          	jal	50201196 <port_write_ch>
    50201304:	ff3417e3          	bne	s0,s3,502012f2 <load_task_img+0xc2>
    50201308:	02000513          	li	a0,32
    5020130c:	00000417          	auipc	s0,0x0
    50201310:	2d440413          	addi	s0,s0,724 # 502015e0 <strcat+0x74>
    50201314:	00000997          	auipc	s3,0x0
    50201318:	2d198993          	addi	s3,s3,721 # 502015e5 <strcat+0x79>
    5020131c:	0405                	addi	s0,s0,1
    5020131e:	e79ff0ef          	jal	50201196 <port_write_ch>
    50201322:	00044503          	lbu	a0,0(s0)
    50201326:	ff341be3          	bne	s0,s3,5020131c <load_task_img+0xec>
    5020132a:	000cd837          	lui	a6,0xcd
    5020132e:	0496                	slli	s1,s1,0x5
    50201330:	ccd80813          	addi	a6,a6,-819 # ccccd <_start-0x50134333>
    50201334:	2485                	addiw	s1,s1,1
    50201336:	00810993          	addi	s3,sp,8
    5020133a:	0832                	slli	a6,a6,0xc
    5020133c:	ccd80813          	addi	a6,a6,-819
    50201340:	87a6                	mv	a5,s1
    50201342:	85ce                	mv	a1,s3
    50201344:	4601                	li	a2,0
    50201346:	48a5                	li	a7,9
    50201348:	02079713          	slli	a4,a5,0x20
    5020134c:	9301                	srli	a4,a4,0x20
    5020134e:	03070733          	mul	a4,a4,a6
    50201352:	853e                	mv	a0,a5
    50201354:	8432                	mv	s0,a2
    50201356:	0585                	addi	a1,a1,1
    50201358:	2605                	addiw	a2,a2,1
    5020135a:	930d                	srli	a4,a4,0x23
    5020135c:	0027169b          	slliw	a3,a4,0x2
    50201360:	9eb9                	addw	a3,a3,a4
    50201362:	0016969b          	slliw	a3,a3,0x1
    50201366:	9f95                	subw	a5,a5,a3
    50201368:	0307879b          	addiw	a5,a5,48
    5020136c:	fef58fa3          	sb	a5,-1(a1)
    50201370:	87ba                	mv	a5,a4
    50201372:	fca8ebe3          	bltu	a7,a0,50201348 <load_task_img+0x118>
    50201376:	944e                	add	s0,s0,s3
    50201378:	19fd                	addi	s3,s3,-1
    5020137a:	00044503          	lbu	a0,0(s0)
    5020137e:	147d                	addi	s0,s0,-1
    50201380:	e17ff0ef          	jal	50201196 <port_write_ch>
    50201384:	ff341be3          	bne	s0,s3,5020137a <load_task_img+0x14a>
    50201388:	520007b7          	lui	a5,0x52000
    5020138c:	f1878793          	addi	a5,a5,-232 # 51ffff18 <tasks+0x1dfe658>
    50201390:	02049a93          	slli	s5,s1,0x20
    50201394:	639c                	ld	a5,0(a5)
    50201396:	02091a13          	slli	s4,s2,0x20
    5020139a:	020ada93          	srli	s5,s5,0x20
    5020139e:	020a5a13          	srli	s4,s4,0x20
    502013a2:	8656                	mv	a2,s5
    502013a4:	8552                	mv	a0,s4
    502013a6:	4701                	li	a4,0
    502013a8:	4681                	li	a3,0
    502013aa:	02000593          	li	a1,32
    502013ae:	9782                	jalr	a5
    502013b0:	05b00513          	li	a0,91
    502013b4:	00000417          	auipc	s0,0x0
    502013b8:	23440413          	addi	s0,s0,564 # 502015e8 <strcat+0x7c>
    502013bc:	00000497          	auipc	s1,0x0
    502013c0:	23c48493          	addi	s1,s1,572 # 502015f8 <strcat+0x8c>
    502013c4:	0405                	addi	s0,s0,1
    502013c6:	dd1ff0ef          	jal	50201196 <port_write_ch>
    502013ca:	00044503          	lbu	a0,0(s0)
    502013ce:	fe941be3          	bne	s0,s1,502013c4 <load_task_img+0x194>
    502013d2:	01090b13          	addi	s6,s2,16
    502013d6:	84ca                	mv	s1,s2
    502013d8:	00000997          	auipc	s3,0x0
    502013dc:	24098993          	addi	s3,s3,576 # 50201618 <H.0>
    502013e0:	0004c403          	lbu	s0,0(s1)
    502013e4:	0485                	addi	s1,s1,1
    502013e6:	00445793          	srli	a5,s0,0x4
    502013ea:	97ce                	add	a5,a5,s3
    502013ec:	0007c503          	lbu	a0,0(a5)
    502013f0:	883d                	andi	s0,s0,15
    502013f2:	944e                	add	s0,s0,s3
    502013f4:	da3ff0ef          	jal	50201196 <port_write_ch>
    502013f8:	00044503          	lbu	a0,0(s0)
    502013fc:	d9bff0ef          	jal	50201196 <port_write_ch>
    50201400:	02000513          	li	a0,32
    50201404:	d93ff0ef          	jal	50201196 <port_write_ch>
    50201408:	fd649ce3          	bne	s1,s6,502013e0 <load_task_img+0x1b0>
    5020140c:	4529                	li	a0,10
    5020140e:	d89ff0ef          	jal	50201196 <port_write_ch>
    50201412:	520007b7          	lui	a5,0x52000
    50201416:	f1878793          	addi	a5,a5,-232 # 51ffff18 <tasks+0x1dfe658>
    5020141a:	639c                	ld	a5,0(a5)
    5020141c:	8656                	mv	a2,s5
    5020141e:	8552                	mv	a0,s4
    50201420:	4701                	li	a4,0
    50201422:	4681                	li	a3,0
    50201424:	02000593          	li	a1,32
    50201428:	9782                	jalr	a5
    5020142a:	70a6                	ld	ra,104(sp)
    5020142c:	7406                	ld	s0,96(sp)
    5020142e:	64e6                	ld	s1,88(sp)
    50201430:	69a6                	ld	s3,72(sp)
    50201432:	6a06                	ld	s4,64(sp)
    50201434:	7ae2                	ld	s5,56(sp)
    50201436:	7b42                	ld	s6,48(sp)
    50201438:	854a                	mv	a0,s2
    5020143a:	6946                	ld	s2,80(sp)
    5020143c:	6165                	addi	sp,sp,112
    5020143e:	8082                	ret

0000000050201440 <memcpy>:
    50201440:	ce01                	beqz	a2,50201458 <memcpy+0x18>
    50201442:	1602                	slli	a2,a2,0x20
    50201444:	9201                	srli	a2,a2,0x20
    50201446:	962a                	add	a2,a2,a0
    50201448:	0005c783          	lbu	a5,0(a1)
    5020144c:	0505                	addi	a0,a0,1
    5020144e:	0585                	addi	a1,a1,1
    50201450:	fef50fa3          	sb	a5,-1(a0)
    50201454:	fec51ae3          	bne	a0,a2,50201448 <memcpy+0x8>
    50201458:	8082                	ret

000000005020145a <memset>:
    5020145a:	ca09                	beqz	a2,5020146c <memset+0x12>
    5020145c:	1602                	slli	a2,a2,0x20
    5020145e:	9201                	srli	a2,a2,0x20
    50201460:	962a                	add	a2,a2,a0
    50201462:	0505                	addi	a0,a0,1
    50201464:	feb50fa3          	sb	a1,-1(a0)
    50201468:	fec51de3          	bne	a0,a2,50201462 <memset+0x8>
    5020146c:	8082                	ret

000000005020146e <bzero>:
    5020146e:	c989                	beqz	a1,50201480 <bzero+0x12>
    50201470:	1582                	slli	a1,a1,0x20
    50201472:	9181                	srli	a1,a1,0x20
    50201474:	95aa                	add	a1,a1,a0
    50201476:	0505                	addi	a0,a0,1
    50201478:	fe050fa3          	sb	zero,-1(a0)
    5020147c:	feb51de3          	bne	a0,a1,50201476 <bzero+0x8>
    50201480:	8082                	ret

0000000050201482 <strlen>:
    50201482:	00054783          	lbu	a5,0(a0)
    50201486:	cb99                	beqz	a5,5020149c <strlen+0x1a>
    50201488:	00150793          	addi	a5,a0,1
    5020148c:	86be                	mv	a3,a5
    5020148e:	0007c703          	lbu	a4,0(a5)
    50201492:	0785                	addi	a5,a5,1
    50201494:	ff65                	bnez	a4,5020148c <strlen+0xa>
    50201496:	40a6853b          	subw	a0,a3,a0
    5020149a:	8082                	ret
    5020149c:	4501                	li	a0,0
    5020149e:	8082                	ret

00000000502014a0 <strcmp>:
    502014a0:	00054703          	lbu	a4,0(a0)
    502014a4:	eb01                	bnez	a4,502014b4 <strcmp+0x14>
    502014a6:	a025                	j	502014ce <strcmp+0x2e>
    502014a8:	00e79b63          	bne	a5,a4,502014be <strcmp+0x1e>
    502014ac:	00054703          	lbu	a4,0(a0)
    502014b0:	cb11                	beqz	a4,502014c4 <strcmp+0x24>
    502014b2:	0585                	addi	a1,a1,1
    502014b4:	0005c783          	lbu	a5,0(a1)
    502014b8:	0505                	addi	a0,a0,1
    502014ba:	f7fd                	bnez	a5,502014a8 <strcmp+0x8>
    502014bc:	2701                	sext.w	a4,a4
    502014be:	40f7053b          	subw	a0,a4,a5
    502014c2:	8082                	ret
    502014c4:	0015c783          	lbu	a5,1(a1)
    502014c8:	40f7053b          	subw	a0,a4,a5
    502014cc:	8082                	ret
    502014ce:	0005c783          	lbu	a5,0(a1)
    502014d2:	b7f5                	j	502014be <strcmp+0x1e>

00000000502014d4 <strncmp>:
    502014d4:	c21d                	beqz	a2,502014fa <strncmp+0x26>
    502014d6:	1602                	slli	a2,a2,0x20
    502014d8:	9201                	srli	a2,a2,0x20
    502014da:	962a                	add	a2,a2,a0
    502014dc:	a031                	j	502014e8 <strncmp+0x14>
    502014de:	0585                	addi	a1,a1,1
    502014e0:	00e79f63          	bne	a5,a4,502014fe <strncmp+0x2a>
    502014e4:	00c50b63          	beq	a0,a2,502014fa <strncmp+0x26>
    502014e8:	00054783          	lbu	a5,0(a0)
    502014ec:	0005c703          	lbu	a4,0(a1)
    502014f0:	0505                	addi	a0,a0,1
    502014f2:	f7f5                	bnez	a5,502014de <strncmp+0xa>
    502014f4:	4501                	li	a0,0
    502014f6:	9d19                	subw	a0,a0,a4
    502014f8:	8082                	ret
    502014fa:	4501                	li	a0,0
    502014fc:	8082                	ret
    502014fe:	0007851b          	sext.w	a0,a5
    50201502:	9d19                	subw	a0,a0,a4
    50201504:	8082                	ret

0000000050201506 <strcpy>:
    50201506:	0005c783          	lbu	a5,0(a1)
    5020150a:	872a                	mv	a4,a0
    5020150c:	cb81                	beqz	a5,5020151c <strcpy+0x16>
    5020150e:	0585                	addi	a1,a1,1
    50201510:	00f70023          	sb	a5,0(a4)
    50201514:	0005c783          	lbu	a5,0(a1)
    50201518:	0705                	addi	a4,a4,1
    5020151a:	fbf5                	bnez	a5,5020150e <strcpy+0x8>
    5020151c:	00070023          	sb	zero,0(a4)
    50201520:	8082                	ret

0000000050201522 <strncpy>:
    50201522:	0005c683          	lbu	a3,0(a1)
    50201526:	88b2                	mv	a7,a2
    50201528:	87aa                	mv	a5,a0
    5020152a:	c685                	beqz	a3,50201552 <strncpy+0x30>
    5020152c:	fff6081b          	addiw	a6,a2,-1
    50201530:	0105083b          	addw	a6,a0,a6
    50201534:	9e29                	addw	a2,a2,a0
    50201536:	a039                	j	50201544 <strncpy+0x22>
    50201538:	00d78023          	sb	a3,0(a5)
    5020153c:	0005c683          	lbu	a3,0(a1)
    50201540:	0785                	addi	a5,a5,1
    50201542:	ca81                	beqz	a3,50201552 <strncpy+0x30>
    50201544:	40f6073b          	subw	a4,a2,a5
    50201548:	0585                	addi	a1,a1,1
    5020154a:	40f808bb          	subw	a7,a6,a5
    5020154e:	fee045e3          	bgtz	a4,50201538 <strncpy+0x16>
    50201552:	02089713          	slli	a4,a7,0x20
    50201556:	9301                	srli	a4,a4,0x20
    50201558:	973e                	add	a4,a4,a5
    5020155a:	01105863          	blez	a7,5020156a <strncpy+0x48>
    5020155e:	0785                	addi	a5,a5,1
    50201560:	fe078fa3          	sb	zero,-1(a5)
    50201564:	fef71de3          	bne	a4,a5,5020155e <strncpy+0x3c>
    50201568:	8082                	ret
    5020156a:	8082                	ret

000000005020156c <strcat>:
    5020156c:	00054783          	lbu	a5,0(a0)
    50201570:	c39d                	beqz	a5,50201596 <strcat+0x2a>
    50201572:	87aa                	mv	a5,a0
    50201574:	0017c703          	lbu	a4,1(a5)
    50201578:	0785                	addi	a5,a5,1
    5020157a:	ff6d                	bnez	a4,50201574 <strcat+0x8>
    5020157c:	0005c703          	lbu	a4,0(a1)
    50201580:	cb01                	beqz	a4,50201590 <strcat+0x24>
    50201582:	0785                	addi	a5,a5,1
    50201584:	0585                	addi	a1,a1,1
    50201586:	fee78fa3          	sb	a4,-1(a5)
    5020158a:	0005c703          	lbu	a4,0(a1)
    5020158e:	fb75                	bnez	a4,50201582 <strcat+0x16>
    50201590:	00078023          	sb	zero,0(a5)
    50201594:	8082                	ret
    50201596:	87aa                	mv	a5,a0
    50201598:	bfcd                	j	5020158a <strcat+0x1e>
