
build/sort:     file format elf64-littleriscv


Disassembly of section .text:

0000000052000000 <_start>:
    52000000:	1141                	addi	sp,sp,-16
    52000002:	e422                	sd	s0,8(sp)
    52000004:	e006                	sd	ra,0(sp)
    52000006:	0800                	addi	s0,sp,16
    52000008:	00000297          	auipc	t0,0x0
    5200000c:	3c428293          	addi	t0,t0,964 # 520003cc <__DATA_BEGIN__>
    52000010:	00001317          	auipc	t1,0x1
    52000014:	b9030313          	addi	t1,t1,-1136 # 52000ba0 <__BSS_END__>
    52000018:	0002a023          	sw	zero,0(t0)
    5200001c:	0291                	addi	t0,t0,4
    5200001e:	fe62cde3          	blt	t0,t1,52000018 <_start+0x18>
    52000022:	014000ef          	jal	52000036 <main>
    52000026:	6082                	ld	ra,0(sp)
    52000028:	6422                	ld	s0,8(sp)
    5200002a:	0141                	addi	sp,sp,16
    5200002c:	8082                	ret

000000005200002e <loop>:
    5200002e:	10500073          	wfi
    52000032:	bff5                	j	5200002e <loop>
    52000034:	0001                	nop

0000000052000036 <main>:
    52000036:	1101                	addi	sp,sp,-32
    52000038:	e822                	sd	s0,16(sp)
    5200003a:	00000417          	auipc	s0,0x0
    5200003e:	39640413          	addi	s0,s0,918 # 520003d0 <buf>
    52000042:	e426                	sd	s1,8(sp)
    52000044:	e04a                	sd	s2,0(sp)
    52000046:	ec06                	sd	ra,24(sp)
    52000048:	84a2                	mv	s1,s0
    5200004a:	00001917          	auipc	s2,0x1
    5200004e:	b5690913          	addi	s2,s2,-1194 # 52000ba0 <__BSS_END__>
    52000052:	8526                	mv	a0,s1
    52000054:	04d1                	addi	s1,s1,20
    52000056:	0a6000ef          	jal	520000fc <get_word>
    5200005a:	ff249ce3          	bne	s1,s2,52000052 <main+0x1c>
    5200005e:	06400593          	li	a1,100
    52000062:	00000517          	auipc	a0,0x0
    52000066:	36e50513          	addi	a0,a0,878 # 520003d0 <buf>
    5200006a:	520004b7          	lui	s1,0x52000
    5200006e:	164000ef          	jal	520001d2 <sort>
    52000072:	f0048493          	addi	s1,s1,-256 # 51ffff00 <_start-0x100>
    52000076:	609c                	ld	a5,0(s1)
    52000078:	4701                	li	a4,0
    5200007a:	4681                	li	a3,0
    5200007c:	4601                	li	a2,0
    5200007e:	4581                	li	a1,0
    52000080:	8522                	mv	a0,s0
    52000082:	9782                	jalr	a5
    52000084:	609c                	ld	a5,0(s1)
    52000086:	4701                	li	a4,0
    52000088:	4681                	li	a3,0
    5200008a:	4601                	li	a2,0
    5200008c:	4581                	li	a1,0
    5200008e:	00000517          	auipc	a0,0x0
    52000092:	24250513          	addi	a0,a0,578 # 520002d0 <sort+0xfe>
    52000096:	0451                	addi	s0,s0,20
    52000098:	9782                	jalr	a5
    5200009a:	fd241ee3          	bne	s0,s2,52000076 <main+0x40>
    5200009e:	60e2                	ld	ra,24(sp)
    520000a0:	6442                	ld	s0,16(sp)
    520000a2:	64a2                	ld	s1,8(sp)
    520000a4:	6902                	ld	s2,0(sp)
    520000a6:	4501                	li	a0,0
    520000a8:	6105                	addi	sp,sp,32
    520000aa:	8082                	ret

00000000520000ac <strcmp>:
    520000ac:	00054703          	lbu	a4,0(a0)
    520000b0:	eb01                	bnez	a4,520000c0 <strcmp+0x14>
    520000b2:	a025                	j	520000da <strcmp+0x2e>
    520000b4:	00e79b63          	bne	a5,a4,520000ca <strcmp+0x1e>
    520000b8:	00054703          	lbu	a4,0(a0)
    520000bc:	cb11                	beqz	a4,520000d0 <strcmp+0x24>
    520000be:	0585                	addi	a1,a1,1
    520000c0:	0005c783          	lbu	a5,0(a1)
    520000c4:	0505                	addi	a0,a0,1
    520000c6:	f7fd                	bnez	a5,520000b4 <strcmp+0x8>
    520000c8:	2701                	sext.w	a4,a4
    520000ca:	40f7053b          	subw	a0,a4,a5
    520000ce:	8082                	ret
    520000d0:	0015c783          	lbu	a5,1(a1)
    520000d4:	40f7053b          	subw	a0,a4,a5
    520000d8:	8082                	ret
    520000da:	0005c783          	lbu	a5,0(a1)
    520000de:	b7f5                	j	520000ca <strcmp+0x1e>

00000000520000e0 <strcpy>:
    520000e0:	0005c783          	lbu	a5,0(a1)
    520000e4:	872a                	mv	a4,a0
    520000e6:	cb81                	beqz	a5,520000f6 <strcpy+0x16>
    520000e8:	0585                	addi	a1,a1,1
    520000ea:	00f70023          	sb	a5,0(a4)
    520000ee:	0005c783          	lbu	a5,0(a1)
    520000f2:	0705                	addi	a4,a4,1
    520000f4:	fbf5                	bnez	a5,520000e8 <strcpy+0x8>
    520000f6:	00070023          	sb	zero,0(a4)
    520000fa:	8082                	ret

00000000520000fc <get_word>:
    520000fc:	7139                	addi	sp,sp,-64
    520000fe:	f04a                	sd	s2,32(sp)
    52000100:	fff80937          	lui	s2,0xfff80
    52000104:	197d                	addi	s2,s2,-1 # fffffffffff7ffff <__BSS_END__+0xffffffffadf7f45f>
    52000106:	f822                	sd	s0,48(sp)
    52000108:	0936                	slli	s2,s2,0xd
    5200010a:	52000437          	lui	s0,0x52000
    5200010e:	f426                	sd	s1,40(sp)
    52000110:	ec4e                	sd	s3,24(sp)
    52000112:	e852                	sd	s4,16(sp)
    52000114:	fc06                	sd	ra,56(sp)
    52000116:	e456                	sd	s5,8(sp)
    52000118:	e05a                	sd	s6,0(sp)
    5200011a:	8a2a                	mv	s4,a0
    5200011c:	9ff90913          	addi	s2,s2,-1537
    52000120:	f1040413          	addi	s0,s0,-240 # 51ffff10 <_start-0xf0>
    52000124:	54fd                	li	s1,-1
    52000126:	02000993          	li	s3,32
    5200012a:	601c                	ld	a5,0(s0)
    5200012c:	4701                	li	a4,0
    5200012e:	4681                	li	a3,0
    52000130:	4601                	li	a2,0
    52000132:	4581                	li	a1,0
    52000134:	4501                	li	a0,0
    52000136:	9782                	jalr	a5
    52000138:	0005079b          	sext.w	a5,a0
    5200013c:	fe9787e3          	beq	a5,s1,5200012a <get_word+0x2e>
    52000140:	40f95733          	sra	a4,s2,a5
    52000144:	8b05                	andi	a4,a4,1
    52000146:	04f9f563          	bgeu	s3,a5,52000190 <get_word+0x94>
    5200014a:	52000437          	lui	s0,0x52000
    5200014e:	00aa0023          	sb	a0,0(s4)
    52000152:	f1040413          	addi	s0,s0,-240 # 51ffff10 <_start-0xf0>
    52000156:	4485                	li	s1,1
    52000158:	4929                	li	s2,10
    5200015a:	4b35                	li	s6,13
    5200015c:	49a1                	li	s3,8
    5200015e:	5afd                	li	s5,-1
    52000160:	601c                	ld	a5,0(s0)
    52000162:	4701                	li	a4,0
    52000164:	4681                	li	a3,0
    52000166:	4601                	li	a2,0
    52000168:	4581                	li	a1,0
    5200016a:	4501                	li	a0,0
    5200016c:	9782                	jalr	a5
    5200016e:	0005079b          	sext.w	a5,a0
    52000172:	02f94163          	blt	s2,a5,52000194 <get_word+0x98>
    52000176:	04f9c063          	blt	s3,a5,520001b6 <get_word+0xba>
    5200017a:	ff5783e3          	beq	a5,s5,52000160 <get_word+0x64>
    5200017e:	47c9                	li	a5,18
    52000180:	0297cb63          	blt	a5,s1,520001b6 <get_word+0xba>
    52000184:	009a07b3          	add	a5,s4,s1
    52000188:	00a78023          	sb	a0,0(a5)
    5200018c:	2485                	addiw	s1,s1,1
    5200018e:	bfc9                	j	52000160 <get_word+0x64>
    52000190:	df49                	beqz	a4,5200012a <get_word+0x2e>
    52000192:	bf65                	j	5200014a <get_word+0x4e>
    52000194:	03678163          	beq	a5,s6,520001b6 <get_word+0xba>
    52000198:	02000713          	li	a4,32
    5200019c:	00e78d63          	beq	a5,a4,520001b6 <get_word+0xba>
    520001a0:	4749                	li	a4,18
    520001a2:	00974a63          	blt	a4,s1,520001b6 <get_word+0xba>
    520001a6:	07f00713          	li	a4,127
    520001aa:	fce79de3          	bne	a5,a4,52000184 <get_word+0x88>
    520001ae:	fa9059e3          	blez	s1,52000160 <get_word+0x64>
    520001b2:	34fd                	addiw	s1,s1,-1
    520001b4:	b775                	j	52000160 <get_word+0x64>
    520001b6:	9a26                	add	s4,s4,s1
    520001b8:	000a0023          	sb	zero,0(s4)
    520001bc:	70e2                	ld	ra,56(sp)
    520001be:	7442                	ld	s0,48(sp)
    520001c0:	74a2                	ld	s1,40(sp)
    520001c2:	7902                	ld	s2,32(sp)
    520001c4:	69e2                	ld	s3,24(sp)
    520001c6:	6a42                	ld	s4,16(sp)
    520001c8:	6aa2                	ld	s5,8(sp)
    520001ca:	6b02                	ld	s6,0(sp)
    520001cc:	4501                	li	a0,0
    520001ce:	6121                	addi	sp,sp,64
    520001d0:	8082                	ret

00000000520001d2 <sort>:
    520001d2:	4f85                	li	t6,1
    520001d4:	0ebfd863          	bge	t6,a1,520002c4 <sort+0xf2>
    520001d8:	8f2e                	mv	t5,a1
    520001da:	01450293          	addi	t0,a0,20
    520001de:	0fefd463          	bge	t6,t5,520002c6 <sort+0xf4>
    520001e2:	ffef079b          	addiw	a5,t5,-2
    520001e6:	1782                	slli	a5,a5,0x20
    520001e8:	9381                	srli	a5,a5,0x20
    520001ea:	00279e93          	slli	t4,a5,0x2
    520001ee:	9ebe                	add	t4,t4,a5
    520001f0:	0e8a                	slli	t4,t4,0x2
    520001f2:	832a                	mv	t1,a0
    520001f4:	9e96                	add	t4,t4,t0
    520001f6:	00034583          	lbu	a1,0(t1)
    520001fa:	881a                	mv	a6,t1
    520001fc:	cdc5                	beqz	a1,520002b4 <sort+0xe2>
    520001fe:	1101                	addi	sp,sp,-32
    52000200:	01430e13          	addi	t3,t1,20
    52000204:	88f2                	mv	a7,t3
    52000206:	87f2                	mv	a5,t3
    52000208:	871a                	mv	a4,t1
    5200020a:	86ae                	mv	a3,a1
    5200020c:	a031                	j	52000218 <sort+0x46>
    5200020e:	08d61b63          	bne	a2,a3,520002a4 <sort+0xd2>
    52000212:	00074683          	lbu	a3,0(a4)
    52000216:	cab9                	beqz	a3,5200026c <sort+0x9a>
    52000218:	0007c603          	lbu	a2,0(a5)
    5200021c:	0705                	addi	a4,a4,1
    5200021e:	0785                	addi	a5,a5,1
    52000220:	f67d                	bnez	a2,5200020e <sort+0x3c>
    52000222:	003c                	addi	a5,sp,8
    52000224:	871a                	mv	a4,t1
    52000226:	86be                	mv	a3,a5
    52000228:	0705                	addi	a4,a4,1
    5200022a:	00b68023          	sb	a1,0(a3)
    5200022e:	00074583          	lbu	a1,0(a4)
    52000232:	0685                	addi	a3,a3,1
    52000234:	f9f5                	bnez	a1,52000228 <sort+0x56>
    52000236:	01434703          	lbu	a4,20(t1)
    5200023a:	00068023          	sb	zero,0(a3)
    5200023e:	cb09                	beqz	a4,52000250 <sort+0x7e>
    52000240:	86f2                	mv	a3,t3
    52000242:	0685                	addi	a3,a3,1
    52000244:	00e80023          	sb	a4,0(a6)
    52000248:	0006c703          	lbu	a4,0(a3)
    5200024c:	0805                	addi	a6,a6,1
    5200024e:	fb75                	bnez	a4,52000242 <sort+0x70>
    52000250:	00814703          	lbu	a4,8(sp)
    52000254:	00080023          	sb	zero,0(a6)
    52000258:	cb01                	beqz	a4,52000268 <sort+0x96>
    5200025a:	0785                	addi	a5,a5,1
    5200025c:	00e88023          	sb	a4,0(a7)
    52000260:	0007c703          	lbu	a4,0(a5)
    52000264:	0885                	addi	a7,a7,1
    52000266:	fb75                	bnez	a4,5200025a <sort+0x88>
    52000268:	00088023          	sb	zero,0(a7)
    5200026c:	8372                	mv	t1,t3
    5200026e:	01de0b63          	beq	t3,t4,52000284 <sort+0xb2>
    52000272:	00034583          	lbu	a1,0(t1)
    52000276:	881a                	mv	a6,t1
    52000278:	f5c1                	bnez	a1,52000200 <sort+0x2e>
    5200027a:	01430e13          	addi	t3,t1,20
    5200027e:	8372                	mv	t1,t3
    52000280:	ffde19e3          	bne	t3,t4,52000272 <sort+0xa0>
    52000284:	3f7d                	addiw	t5,t5,-1
    52000286:	03ff0363          	beq	t5,t6,520002ac <sort+0xda>
    5200028a:	03efd363          	bge	t6,t5,520002b0 <sort+0xde>
    5200028e:	ffef079b          	addiw	a5,t5,-2
    52000292:	1782                	slli	a5,a5,0x20
    52000294:	9381                	srli	a5,a5,0x20
    52000296:	00279e93          	slli	t4,a5,0x2
    5200029a:	9ebe                	add	t4,t4,a5
    5200029c:	0e8a                	slli	t4,t4,0x2
    5200029e:	832a                	mv	t1,a0
    520002a0:	9e96                	add	t4,t4,t0
    520002a2:	bfc1                	j	52000272 <sort+0xa0>
    520002a4:	2681                	sext.w	a3,a3
    520002a6:	fcd653e3          	bge	a2,a3,5200026c <sort+0x9a>
    520002aa:	bfa5                	j	52000222 <sort+0x50>
    520002ac:	6105                	addi	sp,sp,32
    520002ae:	8082                	ret
    520002b0:	3f7d                	addiw	t5,t5,-1
    520002b2:	bfe1                	j	5200028a <sort+0xb8>
    520002b4:	01430e13          	addi	t3,t1,20
    520002b8:	8372                	mv	t1,t3
    520002ba:	f3de1ee3          	bne	t3,t4,520001f6 <sort+0x24>
    520002be:	3f7d                	addiw	t5,t5,-1
    520002c0:	f1ff1fe3          	bne	t5,t6,520001de <sort+0xc>
    520002c4:	8082                	ret
    520002c6:	3f7d                	addiw	t5,t5,-1
    520002c8:	bf19                	j	520001de <sort+0xc>
